
AVRASM ver. 2.1.30  D:\Argos\Documentos\NomadasElectronicos\BBPSU\FW\Debug\List\bbpsu_mcu.asm Mon Aug 02 20:41:30 2021

D:\Argos\Documentos\NomadasElectronicos\BBPSU\FW\Debug\List\bbpsu_mcu.asm(1090): warning: Register r4 already defined by the .DEF directive
D:\Argos\Documentos\NomadasElectronicos\BBPSU\FW\Debug\List\bbpsu_mcu.asm(1091): warning: Register r3 already defined by the .DEF directive
D:\Argos\Documentos\NomadasElectronicos\BBPSU\FW\Debug\List\bbpsu_mcu.asm(1092): warning: Register r6 already defined by the .DEF directive
D:\Argos\Documentos\NomadasElectronicos\BBPSU\FW\Debug\List\bbpsu_mcu.asm(1093): warning: Register r5 already defined by the .DEF directive
D:\Argos\Documentos\NomadasElectronicos\BBPSU\FW\Debug\List\bbpsu_mcu.asm(1094): warning: Register r8 already defined by the .DEF directive
                 
                 
                 ;CodeVisionAVR C Compiler V3.12 Advanced
                 ;(C) Copyright 1998-2014 Pavel Haiduc, HP InfoTech s.r.l.
                 ;http://www.hpinfotech.com
                 
                 ;Build configuration    : Debug
                 ;Chip type              : ATmega328
                 ;Program type           : Application
                 ;Clock frequency        : 8.000000 MHz
                 ;Memory model           : Small
                 ;Optimize for           : Size
                 ;(s)printf features     : float, width, precision
                 ;(s)scanf features      : int, width
                 ;External RAM size      : 0
                 ;Data Stack size        : 512 byte(s)
                 ;Heap size              : 0 byte(s)
                 ;Promote 'char' to 'int': Yes
                 ;'char' is unsigned     : Yes
                 ;8 bit enums            : Yes
                 ;Global 'const' stored in FLASH: Yes
                 ;Enhanced function parameter passing: Yes
                 ;Enhanced core instructions: On
                 ;Automatic register allocation for global variables: On
                 ;Smart register allocation: On
                 
                 	#define _MODEL_SMALL_
                 
                 	#pragma AVRPART ADMIN PART_NAME ATmega328
                 	#pragma AVRPART MEMORY PROG_FLASH 32768
                 	#pragma AVRPART MEMORY EEPROM 1024
                 	#pragma AVRPART MEMORY INT_SRAM SIZE 2048
                 	#pragma AVRPART MEMORY INT_SRAM START_ADDR 0x100
                 
                 	#define CALL_SUPPORTED 1
                 
                 	.LISTMAC
                 	.EQU EERE=0x0
                 	.EQU EEWE=0x1
                 	.EQU EEMWE=0x2
                 	.EQU UDRE=0x5
                 	.EQU RXC=0x7
                 	.EQU EECR=0x1F
                 	.EQU EEDR=0x20
                 	.EQU EEARL=0x21
                 	.EQU EEARH=0x22
                 	.EQU SPSR=0x2D
                 	.EQU SPDR=0x2E
                 	.EQU SMCR=0x33
                 	.EQU MCUSR=0x34
                 	.EQU MCUCR=0x35
                 	.EQU WDTCSR=0x60
                 	.EQU UCSR0A=0xC0
                 	.EQU UDR0=0xC6
                 	.EQU SPL=0x3D
                 	.EQU SPH=0x3E
                 	.EQU SREG=0x3F
                 	.EQU GPIOR0=0x1E
                 
                 	.DEF R0X0=R0
                 	.DEF R0X1=R1
                 	.DEF R0X2=R2
                 	.DEF R0X3=R3
                 	.DEF R0X4=R4
                 	.DEF R0X5=R5
                 	.DEF R0X6=R6
                 	.DEF R0X7=R7
                 	.DEF R0X8=R8
                 	.DEF R0X9=R9
                 	.DEF R0XA=R10
                 	.DEF R0XB=R11
                 	.DEF R0XC=R12
                 	.DEF R0XD=R13
                 	.DEF R0XE=R14
                 	.DEF R0XF=R15
                 	.DEF R0X10=R16
                 	.DEF R0X11=R17
                 	.DEF R0X12=R18
                 	.DEF R0X13=R19
                 	.DEF R0X14=R20
                 	.DEF R0X15=R21
                 	.DEF R0X16=R22
                 	.DEF R0X17=R23
                 	.DEF R0X18=R24
                 	.DEF R0X19=R25
                 	.DEF R0X1A=R26
                 	.DEF R0X1B=R27
                 	.DEF R0X1C=R28
                 	.DEF R0X1D=R29
                 	.DEF R0X1E=R30
                 	.DEF R0X1F=R31
                 
                 	.EQU __SRAM_START=0x0100
                 	.EQU __SRAM_END=0x08FF
                 	.EQU __DSTACK_SIZE=0x0200
                 	.EQU __HEAP_SIZE=0x0000
                 	.EQU __CLEAR_SRAM_SIZE=__SRAM_END-__SRAM_START+1
                 
                 	.MACRO __CPD1N
                 	CPI  R30,LOW(@0)
                 	LDI  R26,HIGH(@0)
                 	CPC  R31,R26
                 	LDI  R26,BYTE3(@0)
                 	CPC  R22,R26
                 	LDI  R26,BYTE4(@0)
                 	CPC  R23,R26
                 	.ENDM
                 
                 	.MACRO __CPD2N
                 	CPI  R26,LOW(@0)
                 	LDI  R30,HIGH(@0)
                 	CPC  R27,R30
                 	LDI  R30,BYTE3(@0)
                 	CPC  R24,R30
                 	LDI  R30,BYTE4(@0)
                 	CPC  R25,R30
                 	.ENDM
                 
                 	.MACRO __CPWRR
                 	CP   R@0,R@2
                 	CPC  R@1,R@3
                 	.ENDM
                 
                 	.MACRO __CPWRN
                 	CPI  R@0,LOW(@2)
                 	LDI  R30,HIGH(@2)
                 	CPC  R@1,R30
                 	.ENDM
                 
                 	.MACRO __ADDB1MN
                 	SUBI R30,LOW(-@0-(@1))
                 	.ENDM
                 
                 	.MACRO __ADDB2MN
                 	SUBI R26,LOW(-@0-(@1))
                 	.ENDM
                 
                 	.MACRO __ADDW1MN
                 	SUBI R30,LOW(-@0-(@1))
                 	SBCI R31,HIGH(-@0-(@1))
                 	.ENDM
                 
                 	.MACRO __ADDW2MN
                 	SUBI R26,LOW(-@0-(@1))
                 	SBCI R27,HIGH(-@0-(@1))
                 	.ENDM
                 
                 	.MACRO __ADDW1FN
                 	SUBI R30,LOW(-2*@0-(@1))
                 	SBCI R31,HIGH(-2*@0-(@1))
                 	.ENDM
                 
                 	.MACRO __ADDD1FN
                 	SUBI R30,LOW(-2*@0-(@1))
                 	SBCI R31,HIGH(-2*@0-(@1))
                 	SBCI R22,BYTE3(-2*@0-(@1))
                 	.ENDM
                 
                 	.MACRO __ADDD1N
                 	SUBI R30,LOW(-@0)
                 	SBCI R31,HIGH(-@0)
                 	SBCI R22,BYTE3(-@0)
                 	SBCI R23,BYTE4(-@0)
                 	.ENDM
                 
                 	.MACRO __ADDD2N
                 	SUBI R26,LOW(-@0)
                 	SBCI R27,HIGH(-@0)
                 	SBCI R24,BYTE3(-@0)
                 	SBCI R25,BYTE4(-@0)
                 	.ENDM
                 
                 	.MACRO __SUBD1N
                 	SUBI R30,LOW(@0)
                 	SBCI R31,HIGH(@0)
                 	SBCI R22,BYTE3(@0)
                 	SBCI R23,BYTE4(@0)
                 	.ENDM
                 
                 	.MACRO __SUBD2N
                 	SUBI R26,LOW(@0)
                 	SBCI R27,HIGH(@0)
                 	SBCI R24,BYTE3(@0)
                 	SBCI R25,BYTE4(@0)
                 	.ENDM
                 
                 	.MACRO __ANDBMNN
                 	LDS  R30,@0+(@1)
                 	ANDI R30,LOW(@2)
                 	STS  @0+(@1),R30
                 	.ENDM
                 
                 	.MACRO __ANDWMNN
                 	LDS  R30,@0+(@1)
                 	ANDI R30,LOW(@2)
                 	STS  @0+(@1),R30
                 	LDS  R30,@0+(@1)+1
                 	ANDI R30,HIGH(@2)
                 	STS  @0+(@1)+1,R30
                 	.ENDM
                 
                 	.MACRO __ANDD1N
                 	ANDI R30,LOW(@0)
                 	ANDI R31,HIGH(@0)
                 	ANDI R22,BYTE3(@0)
                 	ANDI R23,BYTE4(@0)
                 	.ENDM
                 
                 	.MACRO __ANDD2N
                 	ANDI R26,LOW(@0)
                 	ANDI R27,HIGH(@0)
                 	ANDI R24,BYTE3(@0)
                 	ANDI R25,BYTE4(@0)
                 	.ENDM
                 
                 	.MACRO __ORBMNN
                 	LDS  R30,@0+(@1)
                 	ORI  R30,LOW(@2)
                 	STS  @0+(@1),R30
                 	.ENDM
                 
                 	.MACRO __ORWMNN
                 	LDS  R30,@0+(@1)
                 	ORI  R30,LOW(@2)
                 	STS  @0+(@1),R30
                 	LDS  R30,@0+(@1)+1
                 	ORI  R30,HIGH(@2)
                 	STS  @0+(@1)+1,R30
                 	.ENDM
                 
                 	.MACRO __ORD1N
                 	ORI  R30,LOW(@0)
                 	ORI  R31,HIGH(@0)
                 	ORI  R22,BYTE3(@0)
                 	ORI  R23,BYTE4(@0)
                 	.ENDM
                 
                 	.MACRO __ORD2N
                 	ORI  R26,LOW(@0)
                 	ORI  R27,HIGH(@0)
                 	ORI  R24,BYTE3(@0)
                 	ORI  R25,BYTE4(@0)
                 	.ENDM
                 
                 	.MACRO __DELAY_USB
                 	LDI  R24,LOW(@0)
                 __DELAY_USB_LOOP:
                 	DEC  R24
                 	BRNE __DELAY_USB_LOOP
                 	.ENDM
                 
                 	.MACRO __DELAY_USW
                 	LDI  R24,LOW(@0)
                 	LDI  R25,HIGH(@0)
                 __DELAY_USW_LOOP:
                 	SBIW R24,1
                 	BRNE __DELAY_USW_LOOP
                 	.ENDM
                 
                 	.MACRO __GETD1S
                 	LDD  R30,Y+@0
                 	LDD  R31,Y+@0+1
                 	LDD  R22,Y+@0+2
                 	LDD  R23,Y+@0+3
                 	.ENDM
                 
                 	.MACRO __GETD2S
                 	LDD  R26,Y+@0
                 	LDD  R27,Y+@0+1
                 	LDD  R24,Y+@0+2
                 	LDD  R25,Y+@0+3
                 	.ENDM
                 
                 	.MACRO __PUTD1S
                 	STD  Y+@0,R30
                 	STD  Y+@0+1,R31
                 	STD  Y+@0+2,R22
                 	STD  Y+@0+3,R23
                 	.ENDM
                 
                 	.MACRO __PUTD2S
                 	STD  Y+@0,R26
                 	STD  Y+@0+1,R27
                 	STD  Y+@0+2,R24
                 	STD  Y+@0+3,R25
                 	.ENDM
                 
                 	.MACRO __PUTDZ2
                 	STD  Z+@0,R26
                 	STD  Z+@0+1,R27
                 	STD  Z+@0+2,R24
                 	STD  Z+@0+3,R25
                 	.ENDM
                 
                 	.MACRO __CLRD1S
                 	STD  Y+@0,R30
                 	STD  Y+@0+1,R30
                 	STD  Y+@0+2,R30
                 	STD  Y+@0+3,R30
                 	.ENDM
                 
                 	.MACRO __POINTB1MN
                 	LDI  R30,LOW(@0+(@1))
                 	.ENDM
                 
                 	.MACRO __POINTW1MN
                 	LDI  R30,LOW(@0+(@1))
                 	LDI  R31,HIGH(@0+(@1))
                 	.ENDM
                 
                 	.MACRO __POINTD1M
                 	LDI  R30,LOW(@0)
                 	LDI  R31,HIGH(@0)
                 	LDI  R22,BYTE3(@0)
                 	LDI  R23,BYTE4(@0)
                 	.ENDM
                 
                 	.MACRO __POINTW1FN
                 	LDI  R30,LOW(2*@0+(@1))
                 	LDI  R31,HIGH(2*@0+(@1))
                 	.ENDM
                 
                 	.MACRO __POINTD1FN
                 	LDI  R30,LOW(2*@0+(@1))
                 	LDI  R31,HIGH(2*@0+(@1))
                 	LDI  R22,BYTE3(2*@0+(@1))
                 	LDI  R23,BYTE4(2*@0+(@1))
                 	.ENDM
                 
                 	.MACRO __POINTB2MN
                 	LDI  R26,LOW(@0+(@1))
                 	.ENDM
                 
                 	.MACRO __POINTW2MN
                 	LDI  R26,LOW(@0+(@1))
                 	LDI  R27,HIGH(@0+(@1))
                 	.ENDM
                 
                 	.MACRO __POINTW2FN
                 	LDI  R26,LOW(2*@0+(@1))
                 	LDI  R27,HIGH(2*@0+(@1))
                 	.ENDM
                 
                 	.MACRO __POINTD2FN
                 	LDI  R26,LOW(2*@0+(@1))
                 	LDI  R27,HIGH(2*@0+(@1))
                 	LDI  R24,BYTE3(2*@0+(@1))
                 	LDI  R25,BYTE4(2*@0+(@1))
                 	.ENDM
                 
                 	.MACRO __POINTBRM
                 	LDI  R@0,LOW(@1)
                 	.ENDM
                 
                 	.MACRO __POINTWRM
                 	LDI  R@0,LOW(@2)
                 	LDI  R@1,HIGH(@2)
                 	.ENDM
                 
                 	.MACRO __POINTBRMN
                 	LDI  R@0,LOW(@1+(@2))
                 	.ENDM
                 
                 	.MACRO __POINTWRMN
                 	LDI  R@0,LOW(@2+(@3))
                 	LDI  R@1,HIGH(@2+(@3))
                 	.ENDM
                 
                 	.MACRO __POINTWRFN
                 	LDI  R@0,LOW(@2*2+(@3))
                 	LDI  R@1,HIGH(@2*2+(@3))
                 	.ENDM
                 
                 	.MACRO __GETD1N
                 	LDI  R30,LOW(@0)
                 	LDI  R31,HIGH(@0)
                 	LDI  R22,BYTE3(@0)
                 	LDI  R23,BYTE4(@0)
                 	.ENDM
                 
                 	.MACRO __GETD2N
                 	LDI  R26,LOW(@0)
                 	LDI  R27,HIGH(@0)
                 	LDI  R24,BYTE3(@0)
                 	LDI  R25,BYTE4(@0)
                 	.ENDM
                 
                 	.MACRO __GETB1MN
                 	LDS  R30,@0+(@1)
                 	.ENDM
                 
                 	.MACRO __GETB1HMN
                 	LDS  R31,@0+(@1)
                 	.ENDM
                 
                 	.MACRO __GETW1MN
                 	LDS  R30,@0+(@1)
                 	LDS  R31,@0+(@1)+1
                 	.ENDM
                 
                 	.MACRO __GETD1MN
                 	LDS  R30,@0+(@1)
                 	LDS  R31,@0+(@1)+1
                 	LDS  R22,@0+(@1)+2
                 	LDS  R23,@0+(@1)+3
                 	.ENDM
                 
                 	.MACRO __GETBRMN
                 	LDS  R@0,@1+(@2)
                 	.ENDM
                 
                 	.MACRO __GETWRMN
                 	LDS  R@0,@2+(@3)
                 	LDS  R@1,@2+(@3)+1
                 	.ENDM
                 
                 	.MACRO __GETWRZ
                 	LDD  R@0,Z+@2
                 	LDD  R@1,Z+@2+1
                 	.ENDM
                 
                 	.MACRO __GETD2Z
                 	LDD  R26,Z+@0
                 	LDD  R27,Z+@0+1
                 	LDD  R24,Z+@0+2
                 	LDD  R25,Z+@0+3
                 	.ENDM
                 
                 	.MACRO __GETB2MN
                 	LDS  R26,@0+(@1)
                 	.ENDM
                 
                 	.MACRO __GETW2MN
                 	LDS  R26,@0+(@1)
                 	LDS  R27,@0+(@1)+1
                 	.ENDM
                 
                 	.MACRO __GETD2MN
                 	LDS  R26,@0+(@1)
                 	LDS  R27,@0+(@1)+1
                 	LDS  R24,@0+(@1)+2
                 	LDS  R25,@0+(@1)+3
                 	.ENDM
                 
                 	.MACRO __PUTB1MN
                 	STS  @0+(@1),R30
                 	.ENDM
                 
                 	.MACRO __PUTW1MN
                 	STS  @0+(@1),R30
                 	STS  @0+(@1)+1,R31
                 	.ENDM
                 
                 	.MACRO __PUTD1MN
                 	STS  @0+(@1),R30
                 	STS  @0+(@1)+1,R31
                 	STS  @0+(@1)+2,R22
                 	STS  @0+(@1)+3,R23
                 	.ENDM
                 
                 	.MACRO __PUTB1EN
                 	LDI  R26,LOW(@0+(@1))
                 	LDI  R27,HIGH(@0+(@1))
                 	CALL __EEPROMWRB
                 	.ENDM
                 
                 	.MACRO __PUTW1EN
                 	LDI  R26,LOW(@0+(@1))
                 	LDI  R27,HIGH(@0+(@1))
                 	CALL __EEPROMWRW
                 	.ENDM
                 
                 	.MACRO __PUTD1EN
                 	LDI  R26,LOW(@0+(@1))
                 	LDI  R27,HIGH(@0+(@1))
                 	CALL __EEPROMWRD
                 	.ENDM
                 
                 	.MACRO __PUTBR0MN
                 	STS  @0+(@1),R0
                 	.ENDM
                 
                 	.MACRO __PUTBMRN
                 	STS  @0+(@1),R@2
                 	.ENDM
                 
                 	.MACRO __PUTWMRN
                 	STS  @0+(@1),R@2
                 	STS  @0+(@1)+1,R@3
                 	.ENDM
                 
                 	.MACRO __PUTBZR
                 	STD  Z+@1,R@0
                 	.ENDM
                 
                 	.MACRO __PUTWZR
                 	STD  Z+@2,R@0
                 	STD  Z+@2+1,R@1
                 	.ENDM
                 
                 	.MACRO __GETW1R
                 	MOV  R30,R@0
                 	MOV  R31,R@1
                 	.ENDM
                 
                 	.MACRO __GETW2R
                 	MOV  R26,R@0
                 	MOV  R27,R@1
                 	.ENDM
                 
                 	.MACRO __GETWRN
                 	LDI  R@0,LOW(@2)
                 	LDI  R@1,HIGH(@2)
                 	.ENDM
                 
                 	.MACRO __PUTW1R
                 	MOV  R@0,R30
                 	MOV  R@1,R31
                 	.ENDM
                 
                 	.MACRO __PUTW2R
                 	MOV  R@0,R26
                 	MOV  R@1,R27
                 	.ENDM
                 
                 	.MACRO __ADDWRN
                 	SUBI R@0,LOW(-@2)
                 	SBCI R@1,HIGH(-@2)
                 	.ENDM
                 
                 	.MACRO __ADDWRR
                 	ADD  R@0,R@2
                 	ADC  R@1,R@3
                 	.ENDM
                 
                 	.MACRO __SUBWRN
                 	SUBI R@0,LOW(@2)
                 	SBCI R@1,HIGH(@2)
                 	.ENDM
                 
                 	.MACRO __SUBWRR
                 	SUB  R@0,R@2
                 	SBC  R@1,R@3
                 	.ENDM
                 
                 	.MACRO __ANDWRN
                 	ANDI R@0,LOW(@2)
                 	ANDI R@1,HIGH(@2)
                 	.ENDM
                 
                 	.MACRO __ANDWRR
                 	AND  R@0,R@2
                 	AND  R@1,R@3
                 	.ENDM
                 
                 	.MACRO __ORWRN
                 	ORI  R@0,LOW(@2)
                 	ORI  R@1,HIGH(@2)
                 	.ENDM
                 
                 	.MACRO __ORWRR
                 	OR   R@0,R@2
                 	OR   R@1,R@3
                 	.ENDM
                 
                 	.MACRO __EORWRR
                 	EOR  R@0,R@2
                 	EOR  R@1,R@3
                 	.ENDM
                 
                 	.MACRO __GETWRS
                 	LDD  R@0,Y+@2
                 	LDD  R@1,Y+@2+1
                 	.ENDM
                 
                 	.MACRO __PUTBSR
                 	STD  Y+@1,R@0
                 	.ENDM
                 
                 	.MACRO __PUTWSR
                 	STD  Y+@2,R@0
                 	STD  Y+@2+1,R@1
                 	.ENDM
                 
                 	.MACRO __MOVEWRR
                 	MOV  R@0,R@2
                 	MOV  R@1,R@3
                 	.ENDM
                 
                 	.MACRO __INWR
                 	IN   R@0,@2
                 	IN   R@1,@2+1
                 	.ENDM
                 
                 	.MACRO __OUTWR
                 	OUT  @2+1,R@1
                 	OUT  @2,R@0
                 	.ENDM
                 
                 	.MACRO __CALL1MN
                 	LDS  R30,@0+(@1)
                 	LDS  R31,@0+(@1)+1
                 	ICALL
                 	.ENDM
                 
                 	.MACRO __CALL1FN
                 	LDI  R30,LOW(2*@0+(@1))
                 	LDI  R31,HIGH(2*@0+(@1))
                 	CALL __GETW1PF
                 	ICALL
                 	.ENDM
                 
                 	.MACRO __CALL2EN
                 	PUSH R26
                 	PUSH R27
                 	LDI  R26,LOW(@0+(@1))
                 	LDI  R27,HIGH(@0+(@1))
                 	CALL __EEPROMRDW
                 	POP  R27
                 	POP  R26
                 	ICALL
                 	.ENDM
                 
                 	.MACRO __CALL2EX
                 	SUBI R26,LOW(-@0)
                 	SBCI R27,HIGH(-@0)
                 	CALL __EEPROMRDD
                 	ICALL
                 	.ENDM
                 
                 	.MACRO __GETW1STACK
                 	IN   R30,SPL
                 	IN   R31,SPH
                 	ADIW R30,@0+1
                 	LD   R0,Z+
                 	LD   R31,Z
                 	MOV  R30,R0
                 	.ENDM
                 
                 	.MACRO __GETD1STACK
                 	IN   R30,SPL
                 	IN   R31,SPH
                 	ADIW R30,@0+1
                 	LD   R0,Z+
                 	LD   R1,Z+
                 	LD   R22,Z
                 	MOVW R30,R0
                 	.ENDM
                 
                 	.MACRO __NBST
                 	BST  R@0,@1
                 	IN   R30,SREG
                 	LDI  R31,0x40
                 	EOR  R30,R31
                 	OUT  SREG,R30
                 	.ENDM
                 
                 
                 	.MACRO __PUTB1SN
                 	LDD  R26,Y+@0
                 	LDD  R27,Y+@0+1
                 	SUBI R26,LOW(-@1)
                 	SBCI R27,HIGH(-@1)
                 	ST   X,R30
                 	.ENDM
                 
                 	.MACRO __PUTW1SN
                 	LDD  R26,Y+@0
                 	LDD  R27,Y+@0+1
                 	SUBI R26,LOW(-@1)
                 	SBCI R27,HIGH(-@1)
                 	ST   X+,R30
                 	ST   X,R31
                 	.ENDM
                 
                 	.MACRO __PUTD1SN
                 	LDD  R26,Y+@0
                 	LDD  R27,Y+@0+1
                 	SUBI R26,LOW(-@1)
                 	SBCI R27,HIGH(-@1)
                 	CALL __PUTDP1
                 	.ENDM
                 
                 	.MACRO __PUTB1SNS
                 	LDD  R26,Y+@0
                 	LDD  R27,Y+@0+1
                 	ADIW R26,@1
                 	ST   X,R30
                 	.ENDM
                 
                 	.MACRO __PUTW1SNS
                 	LDD  R26,Y+@0
                 	LDD  R27,Y+@0+1
                 	ADIW R26,@1
                 	ST   X+,R30
                 	ST   X,R31
                 	.ENDM
                 
                 	.MACRO __PUTD1SNS
                 	LDD  R26,Y+@0
                 	LDD  R27,Y+@0+1
                 	ADIW R26,@1
                 	CALL __PUTDP1
                 	.ENDM
                 
                 	.MACRO __PUTB1PMN
                 	LDS  R26,@0
                 	LDS  R27,@0+1
                 	SUBI R26,LOW(-@1)
                 	SBCI R27,HIGH(-@1)
                 	ST   X,R30
                 	.ENDM
                 
                 	.MACRO __PUTW1PMN
                 	LDS  R26,@0
                 	LDS  R27,@0+1
                 	SUBI R26,LOW(-@1)
                 	SBCI R27,HIGH(-@1)
                 	ST   X+,R30
                 	ST   X,R31
                 	.ENDM
                 
                 	.MACRO __PUTD1PMN
                 	LDS  R26,@0
                 	LDS  R27,@0+1
                 	SUBI R26,LOW(-@1)
                 	SBCI R27,HIGH(-@1)
                 	CALL __PUTDP1
                 	.ENDM
                 
                 	.MACRO __PUTB1PMNS
                 	LDS  R26,@0
                 	LDS  R27,@0+1
                 	ADIW R26,@1
                 	ST   X,R30
                 	.ENDM
                 
                 	.MACRO __PUTW1PMNS
                 	LDS  R26,@0
                 	LDS  R27,@0+1
                 	ADIW R26,@1
                 	ST   X+,R30
                 	ST   X,R31
                 	.ENDM
                 
                 	.MACRO __PUTD1PMNS
                 	LDS  R26,@0
                 	LDS  R27,@0+1
                 	ADIW R26,@1
                 	CALL __PUTDP1
                 	.ENDM
                 
                 	.MACRO __PUTB1RN
                 	MOVW R26,R@0
                 	SUBI R26,LOW(-@1)
                 	SBCI R27,HIGH(-@1)
                 	ST   X,R30
                 	.ENDM
                 
                 	.MACRO __PUTW1RN
                 	MOVW R26,R@0
                 	SUBI R26,LOW(-@1)
                 	SBCI R27,HIGH(-@1)
                 	ST   X+,R30
                 	ST   X,R31
                 	.ENDM
                 
                 	.MACRO __PUTD1RN
                 	MOVW R26,R@0
                 	SUBI R26,LOW(-@1)
                 	SBCI R27,HIGH(-@1)
                 	CALL __PUTDP1
                 	.ENDM
                 
                 	.MACRO __PUTB1RNS
                 	MOVW R26,R@0
                 	ADIW R26,@1
                 	ST   X,R30
                 	.ENDM
                 
                 	.MACRO __PUTW1RNS
                 	MOVW R26,R@0
                 	ADIW R26,@1
                 	ST   X+,R30
                 	ST   X,R31
                 	.ENDM
                 
                 	.MACRO __PUTD1RNS
                 	MOVW R26,R@0
                 	ADIW R26,@1
                 	CALL __PUTDP1
                 	.ENDM
                 
                 	.MACRO __PUTB1RON
                 	MOV  R26,R@0
                 	MOV  R27,R@1
                 	SUBI R26,LOW(-@2)
                 	SBCI R27,HIGH(-@2)
                 	ST   X,R30
                 	.ENDM
                 
                 	.MACRO __PUTW1RON
                 	MOV  R26,R@0
                 	MOV  R27,R@1
                 	SUBI R26,LOW(-@2)
                 	SBCI R27,HIGH(-@2)
                 	ST   X+,R30
                 	ST   X,R31
                 	.ENDM
                 
                 	.MACRO __PUTD1RON
                 	MOV  R26,R@0
                 	MOV  R27,R@1
                 	SUBI R26,LOW(-@2)
                 	SBCI R27,HIGH(-@2)
                 	CALL __PUTDP1
                 	.ENDM
                 
                 	.MACRO __PUTB1RONS
                 	MOV  R26,R@0
                 	MOV  R27,R@1
                 	ADIW R26,@2
                 	ST   X,R30
                 	.ENDM
                 
                 	.MACRO __PUTW1RONS
                 	MOV  R26,R@0
                 	MOV  R27,R@1
                 	ADIW R26,@2
                 	ST   X+,R30
                 	ST   X,R31
                 	.ENDM
                 
                 	.MACRO __PUTD1RONS
                 	MOV  R26,R@0
                 	MOV  R27,R@1
                 	ADIW R26,@2
                 	CALL __PUTDP1
                 	.ENDM
                 
                 
                 	.MACRO __GETB1SX
                 	MOVW R30,R28
                 	SUBI R30,LOW(-@0)
                 	SBCI R31,HIGH(-@0)
                 	LD   R30,Z
                 	.ENDM
                 
                 	.MACRO __GETB1HSX
                 	MOVW R30,R28
                 	SUBI R30,LOW(-@0)
                 	SBCI R31,HIGH(-@0)
                 	LD   R31,Z
                 	.ENDM
                 
                 	.MACRO __GETW1SX
                 	MOVW R30,R28
                 	SUBI R30,LOW(-@0)
                 	SBCI R31,HIGH(-@0)
                 	LD   R0,Z+
                 	LD   R31,Z
                 	MOV  R30,R0
                 	.ENDM
                 
                 	.MACRO __GETD1SX
                 	MOVW R30,R28
                 	SUBI R30,LOW(-@0)
                 	SBCI R31,HIGH(-@0)
                 	LD   R0,Z+
                 	LD   R1,Z+
                 	LD   R22,Z+
                 	LD   R23,Z
                 	MOVW R30,R0
                 	.ENDM
                 
                 	.MACRO __GETB2SX
                 	MOVW R26,R28
                 	SUBI R26,LOW(-@0)
                 	SBCI R27,HIGH(-@0)
                 	LD   R26,X
                 	.ENDM
                 
                 	.MACRO __GETW2SX
                 	MOVW R26,R28
                 	SUBI R26,LOW(-@0)
                 	SBCI R27,HIGH(-@0)
                 	LD   R0,X+
                 	LD   R27,X
                 	MOV  R26,R0
                 	.ENDM
                 
                 	.MACRO __GETD2SX
                 	MOVW R26,R28
                 	SUBI R26,LOW(-@0)
                 	SBCI R27,HIGH(-@0)
                 	LD   R0,X+
                 	LD   R1,X+
                 	LD   R24,X+
                 	LD   R25,X
                 	MOVW R26,R0
                 	.ENDM
                 
                 	.MACRO __GETBRSX
                 	MOVW R30,R28
                 	SUBI R30,LOW(-@1)
                 	SBCI R31,HIGH(-@1)
                 	LD   R@0,Z
                 	.ENDM
                 
                 	.MACRO __GETWRSX
                 	MOVW R30,R28
                 	SUBI R30,LOW(-@2)
                 	SBCI R31,HIGH(-@2)
                 	LD   R@0,Z+
                 	LD   R@1,Z
                 	.ENDM
                 
                 	.MACRO __GETBRSX2
                 	MOVW R26,R28
                 	SUBI R26,LOW(-@1)
                 	SBCI R27,HIGH(-@1)
                 	LD   R@0,X
                 	.ENDM
                 
                 	.MACRO __GETWRSX2
                 	MOVW R26,R28
                 	SUBI R26,LOW(-@2)
                 	SBCI R27,HIGH(-@2)
                 	LD   R@0,X+
                 	LD   R@1,X
                 	.ENDM
                 
                 	.MACRO __LSLW8SX
                 	MOVW R30,R28
                 	SUBI R30,LOW(-@0)
                 	SBCI R31,HIGH(-@0)
                 	LD   R31,Z
                 	CLR  R30
                 	.ENDM
                 
                 	.MACRO __PUTB1SX
                 	MOVW R26,R28
                 	SUBI R26,LOW(-@0)
                 	SBCI R27,HIGH(-@0)
                 	ST   X,R30
                 	.ENDM
                 
                 	.MACRO __PUTW1SX
                 	MOVW R26,R28
                 	SUBI R26,LOW(-@0)
                 	SBCI R27,HIGH(-@0)
                 	ST   X+,R30
                 	ST   X,R31
                 	.ENDM
                 
                 	.MACRO __PUTD1SX
                 	MOVW R26,R28
                 	SUBI R26,LOW(-@0)
                 	SBCI R27,HIGH(-@0)
                 	ST   X+,R30
                 	ST   X+,R31
                 	ST   X+,R22
                 	ST   X,R23
                 	.ENDM
                 
                 	.MACRO __CLRW1SX
                 	MOVW R26,R28
                 	SUBI R26,LOW(-@0)
                 	SBCI R27,HIGH(-@0)
                 	ST   X+,R30
                 	ST   X,R30
                 	.ENDM
                 
                 	.MACRO __CLRD1SX
                 	MOVW R26,R28
                 	SUBI R26,LOW(-@0)
                 	SBCI R27,HIGH(-@0)
                 	ST   X+,R30
                 	ST   X+,R30
                 	ST   X+,R30
                 	ST   X,R30
                 	.ENDM
                 
                 	.MACRO __PUTB2SX
                 	MOVW R30,R28
                 	SUBI R30,LOW(-@0)
                 	SBCI R31,HIGH(-@0)
                 	ST   Z,R26
                 	.ENDM
                 
                 	.MACRO __PUTW2SX
                 	MOVW R30,R28
                 	SUBI R30,LOW(-@0)
                 	SBCI R31,HIGH(-@0)
                 	ST   Z+,R26
                 	ST   Z,R27
                 	.ENDM
                 
                 	.MACRO __PUTD2SX
                 	MOVW R30,R28
                 	SUBI R30,LOW(-@0)
                 	SBCI R31,HIGH(-@0)
                 	ST   Z+,R26
                 	ST   Z+,R27
                 	ST   Z+,R24
                 	ST   Z,R25
                 	.ENDM
                 
                 	.MACRO __PUTBSRX
                 	MOVW R30,R28
                 	SUBI R30,LOW(-@1)
                 	SBCI R31,HIGH(-@1)
                 	ST   Z,R@0
                 	.ENDM
                 
                 	.MACRO __PUTWSRX
                 	MOVW R30,R28
                 	SUBI R30,LOW(-@2)
                 	SBCI R31,HIGH(-@2)
                 	ST   Z+,R@0
                 	ST   Z,R@1
                 	.ENDM
                 
                 	.MACRO __PUTB1SNX
                 	MOVW R26,R28
                 	SUBI R26,LOW(-@0)
                 	SBCI R27,HIGH(-@0)
                 	LD   R0,X+
                 	LD   R27,X
                 	MOV  R26,R0
                 	SUBI R26,LOW(-@1)
                 	SBCI R27,HIGH(-@1)
                 	ST   X,R30
                 	.ENDM
                 
                 	.MACRO __PUTW1SNX
                 	MOVW R26,R28
                 	SUBI R26,LOW(-@0)
                 	SBCI R27,HIGH(-@0)
                 	LD   R0,X+
                 	LD   R27,X
                 	MOV  R26,R0
                 	SUBI R26,LOW(-@1)
                 	SBCI R27,HIGH(-@1)
                 	ST   X+,R30
                 	ST   X,R31
                 	.ENDM
                 
                 	.MACRO __PUTD1SNX
                 	MOVW R26,R28
                 	SUBI R26,LOW(-@0)
                 	SBCI R27,HIGH(-@0)
                 	LD   R0,X+
                 	LD   R27,X
                 	MOV  R26,R0
                 	SUBI R26,LOW(-@1)
                 	SBCI R27,HIGH(-@1)
                 	ST   X+,R30
                 	ST   X+,R31
                 	ST   X+,R22
                 	ST   X,R23
                 	.ENDM
                 
                 	.MACRO __MULBRR
                 	MULS R@0,R@1
                 	MOVW R30,R0
                 	.ENDM
                 
                 	.MACRO __MULBRRU
                 	MUL  R@0,R@1
                 	MOVW R30,R0
                 	.ENDM
                 
                 	.MACRO __MULBRR0
                 	MULS R@0,R@1
                 	.ENDM
                 
                 	.MACRO __MULBRRU0
                 	MUL  R@0,R@1
                 	.ENDM
                 
                 	.MACRO __MULBNWRU
                 	LDI  R26,@2
                 	MUL  R26,R@0
                 	MOVW R30,R0
                 	MUL  R26,R@1
                 	ADD  R31,R0
                 	.ENDM
                 
                 ;NAME DEFINITIONS FOR GLOBAL VARIABLES ALLOCATED TO REGISTERS
                 	.DEF __entryState=R4
                 	.DEF __displayState=R3
                 	.DEF _boton_display=R6
                 	.DEF _boton_on_off=R5
                 	.DEF _desplegar_estado=R8
                 
                 ;GPIOR0 INITIALIZATION VALUE
                 	.EQU __GPIOR0_INIT=0x00
                 
                 	.CSEG
                 	.ORG 0x00
                 
                 ;START OF CODE MARKER
                 __START_OF_CODE:
                 
                 ;INTERRUPT VECTORS
000000 940c 00b4 	JMP  __RESET
000002 940c 01ae 	JMP  _ext_int0_isr
000004 940c 01b7 	JMP  _ext_int1_isr
000006 940c 0000 	JMP  0x00
000008 940c 0000 	JMP  0x00
00000a 940c 0000 	JMP  0x00
00000c 940c 0000 	JMP  0x00
00000e 940c 0000 	JMP  0x00
000010 940c 0000 	JMP  0x00
000012 940c 0000 	JMP  0x00
000014 940c 0000 	JMP  0x00
000016 940c 0000 	JMP  0x00
000018 940c 0000 	JMP  0x00
00001a 940c 0000 	JMP  0x00
00001c 940c 0000 	JMP  0x00
00001e 940c 0000 	JMP  0x00
000020 940c 0000 	JMP  0x00
000022 940c 0000 	JMP  0x00
000024 940c 0000 	JMP  0x00
000026 940c 0000 	JMP  0x00
000028 940c 0000 	JMP  0x00
00002a 940c 0000 	JMP  0x00
00002c 940c 0000 	JMP  0x00
00002e 940c 0000 	JMP  0x00
000030 940c 07af 	JMP  _twi_int_handler
000032 940c 0000 	JMP  0x00
                 
                 _0x0:
000034 6f4e
000035 616d
000036 6164
000037 0073      	.DB  0x4E,0x6F,0x6D,0x61,0x64,0x61,0x73,0x0
000038 2020
000039 2020
00003a 6c45
00003b 6365      	.DB  0x20,0x20,0x20,0x20,0x45,0x6C,0x65,0x63
00003c 7274
00003d 6e6f
00003e 6369
00003f 736f      	.DB  0x74,0x72,0x6F,0x6E,0x69,0x63,0x6F,0x73
000040 4900
000041 6e65
000042 3a74
000043 3625      	.DB  0x0,0x49,0x65,0x6E,0x74,0x3A,0x25,0x36
000044 312e
000045 5b66
000046 416d
000047 205d      	.DB  0x2E,0x31,0x66,0x5B,0x6D,0x41,0x5D,0x20
000048 2020
000049 0020
00004a 6556
00004b 746e      	.DB  0x20,0x20,0x20,0x0,0x56,0x65,0x6E,0x74
00004c 203a
00004d 3525
00004e 322e
00004f 5b66      	.DB  0x3A,0x20,0x25,0x35,0x2E,0x32,0x66,0x5B
000050 5d56
000051 2020
000052 2020
000053 4900      	.DB  0x56,0x5D,0x20,0x20,0x20,0x20,0x0,0x49
000054 6173
000055 3a6c
000056 3625
000057 312e      	.DB  0x73,0x61,0x6C,0x3A,0x25,0x36,0x2E,0x31
000058 5b66
000059 416d
00005a 205d
00005b 2020      	.DB  0x66,0x5B,0x6D,0x41,0x5D,0x20,0x20,0x20
00005c 0020
00005d 7356
00005e 6c61
00005f 203a      	.DB  0x20,0x0,0x56,0x73,0x61,0x6C,0x3A,0x20
000060 3525
000061 322e
000062 5b66
000063 5d56      	.DB  0x25,0x35,0x2E,0x32,0x66,0x5B,0x56,0x5D
000064 2020
000065 2020
000066 5000
000067 6e65      	.DB  0x20,0x20,0x20,0x20,0x0,0x50,0x65,0x6E
000068 3a74
000069 3625
00006a 312e
00006b 5b66      	.DB  0x74,0x3A,0x25,0x36,0x2E,0x31,0x66,0x5B
00006c 5d57
00006d 2020
00006e 2020
00006f 5000      	.DB  0x57,0x5D,0x20,0x20,0x20,0x20,0x0,0x50
000070 6173
000071 3a6c
000072 3625
000073 312e      	.DB  0x73,0x61,0x6C,0x3A,0x25,0x36,0x2E,0x31
000074 5b66
000075 5d57
000076 2020
000077 2020      	.DB  0x66,0x5B,0x57,0x5D,0x20,0x20,0x20,0x20
000078 4500
000079 6666
00007a 203a
00007b 3625      	.DB  0x0,0x45,0x66,0x66,0x3A,0x20,0x25,0x36
00007c 312e
00007d 5b66
00007e 2525
00007f 205d      	.DB  0x2E,0x31,0x66,0x5B,0x25,0x25,0x5D,0x20
000080 2020
000081 0020
000082 6256
000083 7461      	.DB  0x20,0x20,0x20,0x0,0x56,0x62,0x61,0x74
000084 203a
000085 3525
000086 322e
000087 5b66      	.DB  0x3A,0x20,0x25,0x35,0x2E,0x32,0x66,0x5B
000088 5d56
000089 2020
00008a 2020
00008b 2500      	.DB  0x56,0x5D,0x20,0x20,0x20,0x20,0x0,0x25
00008c 3430
00008d 2064
00008e 3025
00008f 6434      	.DB  0x30,0x34,0x64,0x20,0x25,0x30,0x34,0x64
000090 2520
000091 3430
000092 2064
000093 2500      	.DB  0x20,0x25,0x30,0x34,0x64,0x20,0x0,0x25
000094 3430
000095 2064
000096 3025
000097 6434      	.DB  0x30,0x34,0x64,0x20,0x25,0x30,0x34,0x64
000098 2020
000099 2020
00009a 2020
00009b 2020      	.DB  0x20,0x20,0x20,0x20,0x20,0x20,0x20,0x20
00009c 0020      	.DB  0x20,0x0
                 _0x2000000:
00009d 4e2d
00009e 4e41
D:\Argos\Documentos\NomadasElectronicos\BBPSU\FW\Debug\List\bbpsu_mcu.asm(1162): warning: .cseg .db misalignment - padding zero byte
00009f 0000      	.DB  0x2D,0x4E,0x41,0x4E,0x0
                 _0x2020003:
D:\Argos\Documentos\NomadasElectronicos\BBPSU\FW\Debug\List\bbpsu_mcu.asm(1164): warning: .cseg .db misalignment - padding zero byte
0000a0 0007      	.DB  0x7
                 _0x20A0060:
D:\Argos\Documentos\NomadasElectronicos\BBPSU\FW\Debug\List\bbpsu_mcu.asm(1166): warning: .cseg .db misalignment - padding zero byte
0000a1 0001      	.DB  0x1
                 _0x20A0000:
0000a2 4e2d
0000a3 4e41
0000a4 4900
0000a5 464e      	.DB  0x2D,0x4E,0x41,0x4E,0x0,0x49,0x4E,0x46
D:\Argos\Documentos\NomadasElectronicos\BBPSU\FW\Debug\List\bbpsu_mcu.asm(1169): warning: .cseg .db misalignment - padding zero byte
0000a6 0000      	.DB  0x0
                 
                 __GLOBAL_INI_TBL:
0000a7 0008      	.DW  0x08
0000a8 0300      	.DW  _0x1F
0000a9 0068      	.DW  _0x0*2
                 
0000aa 0011      	.DW  0x11
0000ab 0308      	.DW  _0x1F+8
0000ac 0070      	.DW  _0x0*2+8
                 
0000ad 0001      	.DW  0x01
0000ae 031b      	.DW  _twi_result
0000af 0140      	.DW  _0x2020003*2
                 
0000b0 0001      	.DW  0x01
0000b1 0375      	.DW  __seed_G105
0000b2 0142      	.DW  _0x20A0060*2
                 
                 _0xFFFFFFFF:
0000b3 0000      	.DW  0
                 
                 #define __GLOBAL_INI_TBL_PRESENT 1
                 
                 __RESET:
0000b4 94f8      	CLI
0000b5 27ee      	CLR  R30
0000b6 bbef      	OUT  EECR,R30
                 
                 ;INTERRUPT VECTORS ARE PLACED
                 ;AT THE START OF FLASH
0000b7 e0f1      	LDI  R31,1
0000b8 bff5      	OUT  MCUCR,R31
0000b9 bfe5      	OUT  MCUCR,R30
                 
                 ;CLEAR R2-R14
0000ba e08d      	LDI  R24,(14-2)+1
0000bb e0a2      	LDI  R26,2
0000bc 27bb      	CLR  R27
                 __CLEAR_REG:
0000bd 93ed      	ST   X+,R30
0000be 958a      	DEC  R24
0000bf f7e9      	BRNE __CLEAR_REG
                 
                 ;CLEAR SRAM
0000c0 e080      	LDI  R24,LOW(__CLEAR_SRAM_SIZE)
0000c1 e098      	LDI  R25,HIGH(__CLEAR_SRAM_SIZE)
0000c2 e0a0      	LDI  R26,LOW(__SRAM_START)
0000c3 e0b1      	LDI  R27,HIGH(__SRAM_START)
                 __CLEAR_SRAM:
0000c4 93ed      	ST   X+,R30
0000c5 9701      	SBIW R24,1
0000c6 f7e9      	BRNE __CLEAR_SRAM
                 
                 ;GLOBAL VARIABLES INITIALIZATION
0000c7 e4ee      	LDI  R30,LOW(__GLOBAL_INI_TBL*2)
0000c8 e0f1      	LDI  R31,HIGH(__GLOBAL_INI_TBL*2)
                 __GLOBAL_INI_NEXT:
0000c9 9185      	LPM  R24,Z+
0000ca 9195      	LPM  R25,Z+
0000cb 9700      	SBIW R24,0
0000cc f061      	BREQ __GLOBAL_INI_END
0000cd 91a5      	LPM  R26,Z+
0000ce 91b5      	LPM  R27,Z+
0000cf 9005      	LPM  R0,Z+
0000d0 9015      	LPM  R1,Z+
0000d1 01bf      	MOVW R22,R30
0000d2 01f0      	MOVW R30,R0
                 __GLOBAL_INI_LOOP:
0000d3 9005      	LPM  R0,Z+
0000d4 920d      	ST   X+,R0
0000d5 9701      	SBIW R24,1
0000d6 f7e1      	BRNE __GLOBAL_INI_LOOP
0000d7 01fb      	MOVW R30,R22
0000d8 cff0      	RJMP __GLOBAL_INI_NEXT
                 __GLOBAL_INI_END:
                 
                 ;GPIOR0 INITIALIZATION
0000d9 e0e0      	LDI  R30,__GPIOR0_INIT
0000da bbee      	OUT  GPIOR0,R30
                 
                 ;HARDWARE STACK POINTER INITIALIZATION
0000db efef      	LDI  R30,LOW(__SRAM_END-__HEAP_SIZE)
0000dc bfed      	OUT  SPL,R30
0000dd e0e8      	LDI  R30,HIGH(__SRAM_END-__HEAP_SIZE)
0000de bfee      	OUT  SPH,R30
                 
                 ;DATA STACK POINTER INITIALIZATION
0000df e0c0      	LDI  R28,LOW(__SRAM_START+__DSTACK_SIZE)
0000e0 e0d3      	LDI  R29,HIGH(__SRAM_START+__DSTACK_SIZE)
                 
0000e1 940c 01e9 	JMP  _main
                 
                 	.ESEG
                 	.ORG 0
                 
                 	.DSEG
                 	.ORG 0x300
                 
                 	.CSEG
                 ;/*******************************************************
                 ;This program was created by the
                 ;CodeWizardAVR V3.12 Advanced
                 ;Automatic Program Generator
                 ;© Copyright 1998-2014 Pavel Haiduc, HP InfoTech s.r.l.
                 ;http://www.hpinfotech.com
                 ;
                 ;Project : BBPSU_MCU
                 ;Version : 1.2
                 ;Date    : 02/08/2021
                 ;Author  : Argos
                 ;Company : Nómadas Electrónicos
                 ;Comments:
                 ;Monitoreo de Corriente y Voltaje de fuente de Alimentacion
                 ;Con Respaldo de Bateria para dispositivos
                 ;como: Ruteadores, Modems, etc...
                 ;
                 ;
                 ;Chip type               : ATmega328
                 ;Program type            : Application
                 ;AVR Core Clock frequency: 8.000000 MHz
                 ;Memory model            : Small
                 ;External RAM size       : 0
                 ;Data Stack size         : 512
                 ;*******************************************************/
                 ;
                 ;#include <mega328.h>
                 	#ifndef __SLEEP_DEFINED__
                 	#define __SLEEP_DEFINED__
                 	.EQU __se_bit=0x01
                 	.EQU __sm_mask=0x0E
                 	.EQU __sm_adc_noise_red=0x02
                 	.EQU __sm_powerdown=0x04
                 	.EQU __sm_powersave=0x06
                 	.EQU __sm_standby=0x0C
                 	.EQU __sm_ext_standby=0x0E
                 	.SET power_ctrl_reg=smcr
                 	#endif
                 ;
                 ;#include <delay.h>
                 ;#include <stdio.h>
                 ;#include "lcd_i2c.h"
                 
                 	.CSEG
                 _GetLowData:
                 ; .FSTART _GetLowData
0000e3 940e 0a3a 	CALL SUBOPT_0x0
                 ;	in -> Y+1
                 ;	buffer -> R17
0000e5 70ef      	ANDI R30,LOW(0xF)
0000e6 95e2      	SWAP R30
0000e7 7fe0      	ANDI R30,0xF0
0000e8 c003      	RJMP _0x20C000B
                 ; .FEND
                 _GetHighData:
                 ; .FSTART _GetHighData
0000e9 940e 0a3a 	CALL SUBOPT_0x0
                 ;	in -> Y+1
                 ;	buffer -> R17
0000eb 7fe0      	ANDI R30,LOW(0xF0)
                 _0x20C000B:
0000ec 2b1e      	OR   R17,R30
0000ed 2fe1      	MOV  R30,R17
0000ee 8118      	LDD  R17,Y+0
0000ef 9626      	ADIW R28,6
0000f0 9508      	RET
                 ; .FEND
                 _LCD_I2C_begin:
                 ; .FSTART _LCD_I2C_begin
0000f1 93aa      	ST   -Y,R26
                 ;	beginWire -> Y+0
0000f2 81e8      	LD   R30,Y
0000f3 30e0      	CPI  R30,0
0000f4 f021      	BREQ _0x3
0000f5 e6a4      	LDI  R26,LOW(100)
0000f6 e0b0      	LDI  R27,0
0000f7 940e 0718 	CALL _twi_master_init
                 _0x3:
0000f9 e0a0      	LDI  R26,LOW(0)
0000fa d078      	RCALL _LCD_I2C_I2C_Write
0000fb 940e 0a4a 	CALL SUBOPT_0x1
0000fd d04f      	RCALL _LCD_I2C_InitializeLCD
0000fe c0e8      	RJMP _0x20C0008
                 ; .FEND
                 _LCD_I2C_backlight:
                 ; .FSTART _LCD_I2C_backlight
0000ff e0e1      	LDI  R30,LOW(1)
                +
000100 93e0 031f+STS __output + ( 3 ) , R30
                 	__PUTB1MN __output,3
                +
000102 91e0 031f+LDS R30 , __output + ( 3 )
                 	__GETB1MN __output,3
000104 0fee      	LSL  R30
000105 0fee      	LSL  R30
000106 0fee      	LSL  R30
000107 2fae      	MOV  R26,R30
000108 d06a      	RCALL _LCD_I2C_I2C_Write
000109 9508      	RET
                 ; .FEND
                 _LCD_I2C_clear:
                 ; .FSTART _LCD_I2C_clear
00010a 940e 0a4e 	CALL SUBOPT_0x2
00010c e0e1      	LDI  R30,LOW(1)
00010d 940e 0a54 	CALL SUBOPT_0x3
                +
00010f e880     +LDI R24 , LOW ( 3200 )
000110 e09c     +LDI R25 , HIGH ( 3200 )
                +__DELAY_USW_LOOP :
000111 9701     +SBIW R24 , 1
000112 f7f1     +BRNE __DELAY_USW_LOOP
                 	__DELAY_USW 3200
000113 9508      	RET
                 ; .FEND
                 _LCD_I2C_leftToRight:
                 ; .FSTART _LCD_I2C_leftToRight
000114 940e 0a4e 	CALL SUBOPT_0x2
000116 e0e2      	LDI  R30,LOW(2)
000117 2a4e      	OR   R4,R30
000118 2de4      	MOV  R30,R4
000119 60e4      	ORI  R30,4
00011a c006      	RJMP _0x20C000A
                 ; .FEND
                 _LCD_I2C_display:
                 ; .FSTART _LCD_I2C_display
00011b 940e 0a4e 	CALL SUBOPT_0x2
00011d e0e4      	LDI  R30,LOW(4)
00011e 2a3e      	OR   R3,R30
00011f 2de3      	MOV  R30,R3
000120 60e8      	ORI  R30,8
                 _0x20C000A:
000121 93ea      	ST   -Y,R30
000122 e0a0      	LDI  R26,LOW(0)
000123 940e 0a58 	CALL SUBOPT_0x4
000125 9508      	RET
                 ; .FEND
                 ;	location -> Y+4
                 ;	charmap -> Y+2
                 ;	i -> R16,R17
                 _LCD_I2C_setCursor:
                 ; .FSTART _LCD_I2C_setCursor
000126 93aa      	ST   -Y,R26
000127 931a      	ST   -Y,R17
                 ;	col -> Y+2
                 ;	row -> Y+1
                 ;	newAddress -> R17
000128 940e 0a4e 	CALL SUBOPT_0x2
00012a 81a9      	LDD  R26,Y+1
00012b 30a0      	CPI  R26,LOW(0x0)
00012c f411      	BRNE _0x7
00012d e0e0      	LDI  R30,LOW(0)
00012e c001      	RJMP _0x8
                 _0x7:
00012f e4e0      	LDI  R30,LOW(64)
                 _0x8:
000130 2f1e      	MOV  R17,R30
000131 81ea      	LDD  R30,Y+2
000132 0f1e      	ADD  R17,R30
000133 2fe1      	MOV  R30,R17
000134 68e0      	ORI  R30,0x80
000135 940e 0a54 	CALL SUBOPT_0x3
                +
000137 e683     +LDI R24 , LOW ( 99 )
                +__DELAY_USB_LOOP :
000138 958a     +DEC R24
000139 f7f1     +BRNE __DELAY_USB_LOOP
                 	__DELAY_USB 99
00013a 8118      	LDD  R17,Y+0
00013b 9623      	ADIW R28,3
00013c 9508      	RET
                 ; .FEND
                 _LCD_I2C_write:
                 ; .FSTART _LCD_I2C_write
00013d 93aa      	ST   -Y,R26
                 ;	character -> Y+0
00013e e0e1      	LDI  R30,LOW(1)
00013f 93e0 031c 	STS  __output,R30
000141 e0e0      	LDI  R30,LOW(0)
                +
000142 93e0 031d+STS __output + ( 1 ) , R30
                 	__PUTB1MN __output,1
000144 81e8      	LD   R30,Y
000145 940e 0a54 	CALL SUBOPT_0x3
                +
000147 e68d     +LDI R24 , LOW ( 109 )
                +__DELAY_USB_LOOP :
000148 958a     +DEC R24
000149 f7f1     +BRNE __DELAY_USB_LOOP
                 	__DELAY_USB 109
00014a e0e1      	LDI  R30,LOW(1)
00014b e0f0      	LDI  R31,HIGH(1)
00014c c09a      	RJMP _0x20C0008
                 ; .FEND
                 _LCD_I2C_InitializeLCD:
                 ; .FSTART _LCD_I2C_InitializeLCD
00014d 940e 0a4e 	CALL SUBOPT_0x2
00014f e3e0      	LDI  R30,LOW(48)
000150 93ea      	ST   -Y,R30
000151 e0a1      	LDI  R26,LOW(1)
000152 d031      	RCALL _LCD_I2C_LCD_Write
                +
000153 ed80     +LDI R24 , LOW ( 8400 )
000154 e290     +LDI R25 , HIGH ( 8400 )
                +__DELAY_USW_LOOP :
000155 9701     +SBIW R24 , 1
000156 f7f1     +BRNE __DELAY_USW_LOOP
                 	__DELAY_USW 8400
000157 e3e0      	LDI  R30,LOW(48)
000158 93ea      	ST   -Y,R30
000159 e0a1      	LDI  R26,LOW(1)
00015a d029      	RCALL _LCD_I2C_LCD_Write
                +
00015b e28c     +LDI R24 , LOW ( 300 )
00015c e091     +LDI R25 , HIGH ( 300 )
                +__DELAY_USW_LOOP :
00015d 9701     +SBIW R24 , 1
00015e f7f1     +BRNE __DELAY_USW_LOOP
                 	__DELAY_USW 300
00015f e3e0      	LDI  R30,LOW(48)
000160 93ea      	ST   -Y,R30
000161 e0a1      	LDI  R26,LOW(1)
000162 940e 0a58 	CALL SUBOPT_0x4
000164 e2e0      	LDI  R30,LOW(32)
000165 93ea      	ST   -Y,R30
000166 e0a1      	LDI  R26,LOW(1)
000167 940e 0a58 	CALL SUBOPT_0x4
000169 e2e8      	LDI  R30,LOW(40)
00016a 940e 0a54 	CALL SUBOPT_0x3
                +
00016c e683     +LDI R24 , LOW ( 99 )
                +__DELAY_USB_LOOP :
00016d 958a     +DEC R24
00016e f7f1     +BRNE __DELAY_USB_LOOP
                 	__DELAY_USB 99
00016f dfab      	RCALL _LCD_I2C_display
000170 df99      	RCALL _LCD_I2C_clear
000171 dfa2      	RCALL _LCD_I2C_leftToRight
000172 9508      	RET
                 ; .FEND
                 _LCD_I2C_I2C_Write:
                 ; .FSTART _LCD_I2C_I2C_Write
000173 93aa      	ST   -Y,R26
                 ;	output -> Y+0
000174 e2e7      	LDI  R30,LOW(39)
000175 93ea      	ST   -Y,R30
000176 01fe      	MOVW R30,R28
000177 9631      	ADIW R30,1
000178 93fa      	ST   -Y,R31
000179 93ea      	ST   -Y,R30
00017a e0e1      	LDI  R30,LOW(1)
00017b 93ea      	ST   -Y,R30
00017c e0e0      	LDI  R30,LOW(0)
00017d e0f0      	LDI  R31,HIGH(0)
00017e 93fa      	ST   -Y,R31
00017f 93ea      	ST   -Y,R30
000180 e0a0      	LDI  R26,LOW(0)
000181 940e 0746 	CALL _twi_master_trans
000183 c063      	RJMP _0x20C0008
                 ; .FEND
                 _LCD_I2C_LCD_Write:
                 ; .FSTART _LCD_I2C_LCD_Write
000184 93aa      	ST   -Y,R26
                 ;	output -> Y+1
                 ;	initialization -> Y+0
000185 81e9      	LDD  R30,Y+1
                +
000186 93e0 0320+STS __output + ( 4 ) , R30
                 	__PUTB1MN __output,4
000188 940e 0a5e 	CALL SUBOPT_0x5
00018a df5e      	RCALL _GetHighData
00018b 940e 0a67 	CALL SUBOPT_0x6
00018d df5b      	RCALL _GetHighData
00018e 2fae      	MOV  R26,R30
00018f dfe3      	RCALL _LCD_I2C_I2C_Write
000190 81e8      	LD   R30,Y
000191 30e0      	CPI  R30,0
000192 f459      	BRNE _0xA
                +
000193 e683     +LDI R24 , LOW ( 99 )
                +__DELAY_USB_LOOP :
000194 958a     +DEC R24
000195 f7f1     +BRNE __DELAY_USB_LOOP
                 	__DELAY_USB 99
000196 940e 0a5e 	CALL SUBOPT_0x5
000198 df4a      	RCALL _GetLowData
000199 940e 0a67 	CALL SUBOPT_0x6
00019b df47      	RCALL _GetLowData
00019c 2fae      	MOV  R26,R30
00019d dfd5      	RCALL _LCD_I2C_I2C_Write
                 _0xA:
00019e c00d      	RJMP _0x20C0009
                 ; .FEND
                 _LCD_I2C_puts:
                 ; .FSTART _LCD_I2C_puts
00019f 93ba      	ST   -Y,R27
0001a0 93aa      	ST   -Y,R26
                 ;	*cad -> Y+0
                 _0xB:
0001a1 81a8      	LD   R26,Y
0001a2 81b9      	LDD  R27,Y+1
0001a3 91ec      	LD   R30,X
0001a4 30e0      	CPI  R30,0
0001a5 f031      	BREQ _0xD
0001a6 91ed      	LD   R30,X+
0001a7 83a8      	ST   Y,R26
0001a8 83b9      	STD  Y+1,R27
0001a9 2fae      	MOV  R26,R30
0001aa df92      	RCALL _LCD_I2C_write
0001ab cff5      	RJMP _0xB
                 _0xD:
                 _0x20C0009:
0001ac 9622      	ADIW R28,2
0001ad 9508      	RET
                 ; .FEND
                 ;
                 ;
                 ;// Declare your global variables here
                 ;
                 ;//Salidas de LED
                 ;#define LED_VERDE PORTB.7
                 ;#define LED_ROJO  PORTB.6
                 ;//(des)Habilitador del regulador SEPIC
                 ;#define SEPIC_EN  PORTD.5
                 ;//Botones
                 ;#define B_1       PIND.2
                 ;#define B_2       PIND.3
                 ;
                 ;uint8_t boton_display, boton_on_off;
                 ;
                 ;uint8_t buffer_lcd[20];
                 ;
                 ;
                 ;float g_pre_cent, g_pre_csal, g_pre_vbat, g_pre_vsal, g_pre_vent;
                 ;float g_cent, g_csal, g_vbat, g_vsal, g_vent, g_pent, g_psal, g_eff;
                 ;
                 ;unsigned char desplegar_estado;
                 ;
                 ;
                 ;// External Interrupt 0 service routine
                 ;interrupt [EXT_INT0] void ext_int0_isr(void)
                 ; 0000 003A {
                 _ext_int0_isr:
                 ; .FSTART _ext_int0_isr
0001ae 940e 0a76 	CALL SUBOPT_0x7
                 ; 0000 003B  delay_ms(50); //debounce
                 ; 0000 003C  while(B_1 == 0);
                 _0xE:
0001b0 9b4a      	SBIS 0x9,2
0001b1 cffe      	RJMP _0xE
                 ; 0000 003D  delay_ms(50);
0001b2 940e 0a4a 	CALL SUBOPT_0x1
                 ; 0000 003E 
                 ; 0000 003F  boton_display = 1;
0001b4 e0e1      	LDI  R30,LOW(1)
0001b5 2e6e      	MOV  R6,R30
                 ; 0000 0040 
                 ; 0000 0041  //desplegar = (++desplegar)%6;
                 ; 0000 0042  //delay_ms(50);
                 ; 0000 0043 }
0001b6 c008      	RJMP _0x38
                 ; .FEND
                 ;
                 ;// External Interrupt 1 service routine
                 ;interrupt [EXT_INT1] void ext_int1_isr(void)
                 ; 0000 0047 {
                 _ext_int1_isr:
                 ; .FSTART _ext_int1_isr
0001b7 940e 0a76 	CALL SUBOPT_0x7
                 ; 0000 0048 
                 ; 0000 0049  delay_ms(50); //debounce
                 ; 0000 004A  while(B_2 == 0);
                 _0x11:
0001b9 9b4b      	SBIS 0x9,3
0001ba cffe      	RJMP _0x11
                 ; 0000 004B  delay_ms(50);
0001bb 940e 0a4a 	CALL SUBOPT_0x1
                 ; 0000 004C 
                 ; 0000 004D  boton_on_off = 1;
0001bd e0e1      	LDI  R30,LOW(1)
0001be 2e5e      	MOV  R5,R30
                 ; 0000 004E 
                 ; 0000 004F  //SEPIC_EN = !(SEPIC_EN);
                 ; 0000 0050  //LED_ROJO =  SEPIC_EN;
                 ; 0000 0051  //delay_ms(50);
                 ; 0000 0052 }
                 _0x38:
0001bf 91e9      	LD   R30,Y+
0001c0 bfef      	OUT  SREG,R30
0001c1 91f9      	LD   R31,Y+
0001c2 91e9      	LD   R30,Y+
0001c3 91b9      	LD   R27,Y+
0001c4 91a9      	LD   R26,Y+
0001c5 9199      	LD   R25,Y+
0001c6 9189      	LD   R24,Y+
0001c7 9179      	LD   R23,Y+
0001c8 9169      	LD   R22,Y+
0001c9 90f9      	LD   R15,Y+
0001ca 9019      	LD   R1,Y+
0001cb 9009      	LD   R0,Y+
0001cc 9518      	RETI
                 ; .FEND
                 ;
                 ;//Canales del ADC
                 ;#define ADC_CENT  0
                 ;#define ADC_CSAL  1
                 ;#define ADC_VBAT  2
                 ;#define ADC_VSAL  3
                 ;#define ADC_VENT  6
                 ;
                 ;
                 ;
                 ;// Voltage Reference: AVCC pin
                 ;#define ADC_VREF_TYPE ((0<<REFS1) | (1<<REFS0) | (0<<ADLAR))
                 ;
                 ;// Read the AD conversion result
                 ;unsigned int read_adc(unsigned char adc_input)
                 ; 0000 0062 {
                 _read_adc:
                 ; .FSTART _read_adc
                 ; 0000 0063 ADMUX=adc_input | ADC_VREF_TYPE;
0001cd 93aa      	ST   -Y,R26
                 ;	adc_input -> Y+0
0001ce 81e8      	LD   R30,Y
0001cf 64e0      	ORI  R30,0x40
0001d0 93e0 007c 	STS  124,R30
                 ; 0000 0064 // Delay needed for the stabilization of the ADC input voltage
                 ; 0000 0065 delay_us(10);
                +
0001d2 e18b     +LDI R24 , LOW ( 27 )
                +__DELAY_USB_LOOP :
0001d3 958a     +DEC R24
0001d4 f7f1     +BRNE __DELAY_USB_LOOP
                 	__DELAY_USB 27
                 ; 0000 0066 // Start the AD conversion
                 ; 0000 0067 ADCSRA|=(1<<ADSC);
0001d5 91e0 007a 	LDS  R30,122
0001d7 64e0      	ORI  R30,0x40
0001d8 93e0 007a 	STS  122,R30
                 ; 0000 0068 // Wait for the AD conversion to complete
                 ; 0000 0069 while ((ADCSRA & (1<<ADIF))==0);
                 _0x14:
0001da 91e0 007a 	LDS  R30,122
0001dc 71e0      	ANDI R30,LOW(0x10)
0001dd f3e1      	BREQ _0x14
                 ; 0000 006A ADCSRA|=(1<<ADIF);
0001de 91e0 007a 	LDS  R30,122
0001e0 61e0      	ORI  R30,0x10
0001e1 93e0 007a 	STS  122,R30
                 ; 0000 006B return ADCW;
0001e3 91e0 0078 	LDS  R30,120
0001e5 91f0 0079 	LDS  R31,120+1
                 _0x20C0008:
0001e7 9621      	ADIW R28,1
0001e8 9508      	RET
                 ; 0000 006C }
                 ; .FEND
                 ;
                 ;// TWI functions
                 ;#include <twi.h>
                 ;
                 ;
                 ;void hw_init(void);
                 ;
                 ;
                 ;void main(void)
                 ; 0000 0076 {
                 _main:
                 ; .FSTART _main
                 ; 0000 0077 // Declare your local variables here
                 ; 0000 0078 
                 ; 0000 0079 // Crystal Oscillator division factor: 1
                 ; 0000 007A #pragma optsize-
                 ; 0000 007B CLKPR=(1<<CLKPCE);
0001e9 e8e0      	LDI  R30,LOW(128)
0001ea 93e0 0061 	STS  97,R30
                 ; 0000 007C CLKPR=(0<<CLKPCE) | (0<<CLKPS3) | (0<<CLKPS2) | (0<<CLKPS1) | (0<<CLKPS0);
0001ec e0e0      	LDI  R30,LOW(0)
0001ed 93e0 0061 	STS  97,R30
                 ; 0000 007D #ifdef _OPTIMIZE_SIZE_
                 ; 0000 007E #pragma optsize+
                 ; 0000 007F #endif
                 ; 0000 0080 
                 ; 0000 0081 // Checa Fuente de Reset
                 ; 0000 0082 if (MCUSR & (1<<PORF))
0001ef b7e4      	IN   R30,0x34
0001f0 fde0      	SBRC R30,0
                 ; 0000 0083    {
                 ; 0000 0084    // Power-on
                 ; 0000 0085    MCUSR=0;
0001f1 c004      	RJMP _0x36
                 ; 0000 0086    // Place your code here
                 ; 0000 0087 
                 ; 0000 0088    }
                 ; 0000 0089 else if (MCUSR & (1<<EXTRF))
0001f2 b7e4      	IN   R30,0x34
0001f3 fde1      	SBRC R30,1
                 ; 0000 008A    {
                 ; 0000 008B    // Reset Externo
                 ; 0000 008C    MCUSR=0;
0001f4 c001      	RJMP _0x36
                 ; 0000 008D    // Place your code here
                 ; 0000 008E 
                 ; 0000 008F    }
                 ; 0000 0090 else if (MCUSR & (1<<BORF))
0001f5 b7e4      	IN   R30,0x34
                 ; 0000 0091    {
                 ; 0000 0092    // Brown-Out
                 ; 0000 0093    MCUSR=0;
                 ; 0000 0094    // Place your code here
                 ; 0000 0095 
                 ; 0000 0096    }
                 ; 0000 0097 else
                 ; 0000 0098    {
                 ; 0000 0099    // Watchdog
                 ; 0000 009A    MCUSR=0;
                 _0x36:
0001f6 e0e0      	LDI  R30,LOW(0)
0001f7 bfe4      	OUT  0x34,R30
                 ; 0000 009B    // Place your code here
                 ; 0000 009C 
                 ; 0000 009D    }
                 ; 0000 009E 
                 ; 0000 009F hw_init();
0001f8 d16d      	RCALL _hw_init
                 ; 0000 00A0 
                 ; 0000 00A1 LED_ROJO =  SEPIC_EN;
0001f9 995d      	SBIC 0xB,5
0001fa c002      	RJMP _0x1D
0001fb 982e      	CBI  0x5,6
0001fc c001      	RJMP _0x1E
                 _0x1D:
0001fd 9a2e      	SBI  0x5,6
                 _0x1E:
                 ; 0000 00A2 LCD_I2C_begin(0);
0001fe e0a0      	LDI  R26,LOW(0)
0001ff def1      	RCALL _LCD_I2C_begin
                 ; 0000 00A3 LCD_I2C_backlight();
000200 defe      	RCALL _LCD_I2C_backlight
                 ; 0000 00A4 LCD_I2C_setCursor(0, 0);
000201 940e 0a84 	CALL SUBOPT_0x8
                 ; 0000 00A5 LCD_I2C_puts("Nomadas");
                +
000203 e0a0     +LDI R26 , LOW ( _0x1F + ( 0 ) )
000204 e0b3     +LDI R27 , HIGH ( _0x1F + ( 0 ) )
                 	__POINTW2MN _0x1F,0
000205 df99      	RCALL _LCD_I2C_puts
                 ; 0000 00A6 LCD_I2C_setCursor(0, 1);
000206 e0e0      	LDI  R30,LOW(0)
000207 93ea      	ST   -Y,R30
000208 e0a1      	LDI  R26,LOW(1)
000209 df1c      	RCALL _LCD_I2C_setCursor
                 ; 0000 00A7 LCD_I2C_puts("    Electronicos");
                +
00020a e0a8     +LDI R26 , LOW ( _0x1F + ( 8 ) )
00020b e0b3     +LDI R27 , HIGH ( _0x1F + ( 8 ) )
                 	__POINTW2MN _0x1F,8
00020c df92      	RCALL _LCD_I2C_puts
                 ; 0000 00A8 delay_ms(1500);
00020d edac      	LDI  R26,LOW(1500)
00020e e0b5      	LDI  R27,HIGH(1500)
00020f 940e 0c20 	CALL _delay_ms
                 ; 0000 00A9 
                 ; 0000 00AA while(1)
                 _0x20:
                 ; 0000 00AB {
                 ; 0000 00AC     //Etapa en la que pasan las variables de adc
                 ; 0000 00AD     LED_VERDE = 1;
000211 9a2f      	SBI  0x5,7
                 ; 0000 00AE     // #asm("cli")
                 ; 0000 00AF     g_pre_cent = read_adc(ADC_CENT);
000212 e0a0      	LDI  R26,LOW(0)
000213 dfb9      	RCALL _read_adc
000214 e3a5      	LDI  R26,LOW(_g_pre_cent)
000215 e0b3      	LDI  R27,HIGH(_g_pre_cent)
000216 940e 0a89 	CALL SUBOPT_0x9
                 ; 0000 00B0     g_pre_csal = read_adc(ADC_CSAL);
000218 e0a1      	LDI  R26,LOW(1)
000219 dfb3      	RCALL _read_adc
00021a e3a9      	LDI  R26,LOW(_g_pre_csal)
00021b e0b3      	LDI  R27,HIGH(_g_pre_csal)
00021c 940e 0a89 	CALL SUBOPT_0x9
                 ; 0000 00B1     g_pre_vbat = read_adc(ADC_VBAT);
00021e e0a2      	LDI  R26,LOW(2)
00021f dfad      	RCALL _read_adc
000220 e3ad      	LDI  R26,LOW(_g_pre_vbat)
000221 e0b3      	LDI  R27,HIGH(_g_pre_vbat)
000222 940e 0a89 	CALL SUBOPT_0x9
                 ; 0000 00B2     g_pre_vsal = read_adc(ADC_VSAL);
000224 e0a3      	LDI  R26,LOW(3)
000225 dfa7      	RCALL _read_adc
000226 e4a1      	LDI  R26,LOW(_g_pre_vsal)
000227 e0b3      	LDI  R27,HIGH(_g_pre_vsal)
000228 940e 0a89 	CALL SUBOPT_0x9
                 ; 0000 00B3     g_pre_vent = read_adc(ADC_VENT);
00022a e0a6      	LDI  R26,LOW(6)
00022b dfa1      	RCALL _read_adc
00022c e4a5      	LDI  R26,LOW(_g_pre_vent)
00022d e0b3      	LDI  R27,HIGH(_g_pre_vent)
00022e 940e 0a89 	CALL SUBOPT_0x9
                 ; 0000 00B4     // #asm("sei")
                 ; 0000 00B5     LED_VERDE = 0;
000230 982f      	CBI  0x5,7
                 ; 0000 00B6 
                 ; 0000 00B7 
                 ; 0000 00B8     //Se hacen todos los calculos
                 ; 0000 00B9 
                 ; 0000 00BA     g_cent = 0.0048875855 * g_pre_cent; // zxct1107 en [A] (5/1023)
000231 940e 0a90 	CALL SUBOPT_0xA
000233 940e 0a99 	CALL SUBOPT_0xB
000235 93e0 0349 	STS  _g_cent,R30
000237 93f0 034a 	STS  _g_cent+1,R31
000239 9360 034b 	STS  _g_cent+2,R22
00023b 9370 034c 	STS  _g_cent+3,R23
                 ; 0000 00BB     g_csal = 0.0048875855 * g_pre_csal;
00023d 940e 0aa0 	CALL SUBOPT_0xC
00023f 940e 0a99 	CALL SUBOPT_0xB
000241 93e0 034d 	STS  _g_csal,R30
000243 93f0 034e 	STS  _g_csal+1,R31
000245 9360 034f 	STS  _g_csal+2,R22
000247 9370 0350 	STS  _g_csal+3,R23
                 ; 0000 00BC 
                 ; 0000 00BD                                      // (1+(Ra/Rb))*(5/1023)
                 ; 0000 00BE     g_vent = 0.0278592 * g_pre_vent; // Ra = 470k, Rb = 100k
000249 940e 0aa9 	CALL SUBOPT_0xD
                +
00024b efaa     +LDI R26 , LOW ( 0x3CE438FA )
00024c e3b8     +LDI R27 , HIGH ( 0x3CE438FA )
00024d ee84     +LDI R24 , BYTE3 ( 0x3CE438FA )
00024e e39c     +LDI R25 , BYTE4 ( 0x3CE438FA )
                 	__GETD2N 0x3CE438FA
00024f 940e 0d20 	CALL __MULF12
000251 93e0 0359 	STS  _g_vent,R30
000253 93f0 035a 	STS  _g_vent+1,R31
000255 9360 035b 	STS  _g_vent+2,R22
000257 9370 035c 	STS  _g_vent+3,R23
                 ; 0000 00BF     g_vbat = 0.0146628 * g_pre_vbat; // Ra = 200k, Rb = 100k
000259 940e 0ab2 	CALL SUBOPT_0xE
00025b 940e 0abb 	CALL SUBOPT_0xF
00025d 93e0 0351 	STS  _g_vbat,R30
00025f 93f0 0352 	STS  _g_vbat+1,R31
000261 9360 0353 	STS  _g_vbat+2,R22
000263 9370 0354 	STS  _g_vbat+3,R23
                 ; 0000 00C0     g_vsal = 0.0146628 * g_pre_vsal; // Ra = 200k, Rb = 100k
000265 940e 0ac2 	CALL SUBOPT_0x10
000267 940e 0abb 	CALL SUBOPT_0xF
000269 93e0 0355 	STS  _g_vsal,R30
00026b 93f0 0356 	STS  _g_vsal+1,R31
00026d 9360 0357 	STS  _g_vsal+2,R22
00026f 9370 0358 	STS  _g_vsal+3,R23
                 ; 0000 00C1 
                 ; 0000 00C2     g_pent = g_cent * g_vent;        //Potencia de entrada
000271 940e 0acb 	CALL SUBOPT_0x11
000273 940e 0ad4 	CALL SUBOPT_0x12
000275 940e 0d20 	CALL __MULF12
000277 93e0 035d 	STS  _g_pent,R30
000279 93f0 035e 	STS  _g_pent+1,R31
00027b 9360 035f 	STS  _g_pent+2,R22
00027d 9370 0360 	STS  _g_pent+3,R23
                 ; 0000 00C3     g_psal = g_csal * g_vsal;        //Potencia de salida
00027f 940e 0add 	CALL SUBOPT_0x13
000281 940e 0ae6 	CALL SUBOPT_0x14
000283 940e 0d20 	CALL __MULF12
000285 93e0 0361 	STS  _g_psal,R30
000287 93f0 0362 	STS  _g_psal+1,R31
000289 9360 0363 	STS  _g_psal+2,R22
00028b 9370 0364 	STS  _g_psal+3,R23
                 ; 0000 00C4 
                 ; 0000 00C5     g_eff = 100.0 * g_psal/g_pent;   //Eficiencia
00028d 940e 0aef 	CALL SUBOPT_0x15
                +
00028f e0a0     +LDI R26 , LOW ( 0x42C80000 )
000290 e0b0     +LDI R27 , HIGH ( 0x42C80000 )
000291 ec88     +LDI R24 , BYTE3 ( 0x42C80000 )
000292 e492     +LDI R25 , BYTE4 ( 0x42C80000 )
                 	__GETD2N 0x42C80000
000293 940e 0d20 	CALL __MULF12
000295 01df      	MOVW R26,R30
000296 01cb      	MOVW R24,R22
000297 940e 0af8 	CALL SUBOPT_0x16
000299 940e 0d6e 	CALL __DIVF21
00029b 93e0 0365 	STS  _g_eff,R30
00029d 93f0 0366 	STS  _g_eff+1,R31
00029f 9360 0367 	STS  _g_eff+2,R22
0002a1 9370 0368 	STS  _g_eff+3,R23
                 ; 0000 00C6 
                 ; 0000 00C7     //Se muestran los resultados
                 ; 0000 00C8 
                 ; 0000 00C9     switch(desplegar_estado)
0002a3 2de8      	MOV  R30,R8
0002a4 e0f0      	LDI  R31,0
                 ; 0000 00CA     {
                 ; 0000 00CB         case 0:
0002a5 9730      	SBIW R30,0
0002a6 f4a9      	BRNE _0x2A
                 ; 0000 00CC                 sprintf(buffer_lcd, "Ient:%6.1f[mA]    ", g_cent*1000.0);
0002a7 940e 0b01 	CALL SUBOPT_0x17
                +
0002a9 e8e1     +LDI R30 , LOW ( 2 * _0x0 + ( 25 ) )
0002aa e0f0     +LDI R31 , HIGH ( 2 * _0x0 + ( 25 ) )
                 	__POINTW1FN _0x0,25
0002ab 93fa      	ST   -Y,R31
0002ac 93ea      	ST   -Y,R30
0002ad 940e 0ad4 	CALL SUBOPT_0x12
0002af 940e 0b06 	CALL SUBOPT_0x18
                 ; 0000 00CD                 LCD_I2C_setCursor(0, 0);
                 ; 0000 00CE                 LCD_I2C_puts(buffer_lcd);
0002b1 940e 0b13 	CALL SUBOPT_0x19
                 ; 0000 00CF                 sprintf(buffer_lcd, "Vent: %5.2f[V]    ", g_vent);
                +
0002b3 e9e4     +LDI R30 , LOW ( 2 * _0x0 + ( 44 ) )
0002b4 e0f0     +LDI R31 , HIGH ( 2 * _0x0 + ( 44 ) )
                 	__POINTW1FN _0x0,44
0002b5 93fa      	ST   -Y,R31
0002b6 93ea      	ST   -Y,R30
0002b7 940e 0acb 	CALL SUBOPT_0x11
0002b9 940e 0b18 	CALL SUBOPT_0x1A
                 ; 0000 00D0                 LCD_I2C_setCursor(0, 1);
0002bb c089      	RJMP _0x37
                 ; 0000 00D1                 LCD_I2C_puts(buffer_lcd);
                 ; 0000 00D2                 break;
                 ; 0000 00D3         case 1:
                 _0x2A:
0002bc 30e1      	CPI  R30,LOW(0x1)
0002bd e0a0      	LDI  R26,HIGH(0x1)
0002be 07fa      	CPC  R31,R26
0002bf f4a9      	BRNE _0x2B
                 ; 0000 00D4                 sprintf(buffer_lcd, "Isal:%6.1f[mA]    ", g_csal*1000.0);
0002c0 940e 0b01 	CALL SUBOPT_0x17
                +
0002c2 eae7     +LDI R30 , LOW ( 2 * _0x0 + ( 63 ) )
0002c3 e0f0     +LDI R31 , HIGH ( 2 * _0x0 + ( 63 ) )
                 	__POINTW1FN _0x0,63
0002c4 93fa      	ST   -Y,R31
0002c5 93ea      	ST   -Y,R30
0002c6 940e 0ae6 	CALL SUBOPT_0x14
0002c8 940e 0b06 	CALL SUBOPT_0x18
                 ; 0000 00D5                 LCD_I2C_setCursor(0, 0);
                 ; 0000 00D6                 LCD_I2C_puts(buffer_lcd);
0002ca 940e 0b13 	CALL SUBOPT_0x19
                 ; 0000 00D7                 sprintf(buffer_lcd, "Vsal: %5.2f[V]    ", g_vsal);
                +
0002cc ebea     +LDI R30 , LOW ( 2 * _0x0 + ( 82 ) )
0002cd e0f0     +LDI R31 , HIGH ( 2 * _0x0 + ( 82 ) )
                 	__POINTW1FN _0x0,82
0002ce 93fa      	ST   -Y,R31
0002cf 93ea      	ST   -Y,R30
0002d0 940e 0add 	CALL SUBOPT_0x13
0002d2 940e 0b18 	CALL SUBOPT_0x1A
                 ; 0000 00D8                 LCD_I2C_setCursor(0, 1);
0002d4 c070      	RJMP _0x37
                 ; 0000 00D9                 LCD_I2C_puts(buffer_lcd);
                 ; 0000 00DA                 break;
                 ; 0000 00DB         case 2:
                 _0x2B:
0002d5 30e2      	CPI  R30,LOW(0x2)
0002d6 e0a0      	LDI  R26,HIGH(0x2)
0002d7 07fa      	CPC  R31,R26
0002d8 f4b9      	BRNE _0x2C
                 ; 0000 00DC                 sprintf(buffer_lcd, "Pent:%6.1f[W]    ", g_pent);
0002d9 940e 0b01 	CALL SUBOPT_0x17
                +
0002db eced     +LDI R30 , LOW ( 2 * _0x0 + ( 101 ) )
0002dc e0f0     +LDI R31 , HIGH ( 2 * _0x0 + ( 101 ) )
                 	__POINTW1FN _0x0,101
0002dd 93fa      	ST   -Y,R31
0002de 93ea      	ST   -Y,R30
0002df 940e 0af8 	CALL SUBOPT_0x16
0002e1 940e 0b18 	CALL SUBOPT_0x1A
                 ; 0000 00DD                 LCD_I2C_setCursor(0, 0);
0002e3 940e 0a84 	CALL SUBOPT_0x8
                 ; 0000 00DE                 LCD_I2C_puts(buffer_lcd);
0002e5 940e 0b13 	CALL SUBOPT_0x19
                 ; 0000 00DF                 sprintf(buffer_lcd, "Psal:%6.1f[W]    ", g_psal);
                +
0002e7 edef     +LDI R30 , LOW ( 2 * _0x0 + ( 119 ) )
0002e8 e0f0     +LDI R31 , HIGH ( 2 * _0x0 + ( 119 ) )
                 	__POINTW1FN _0x0,119
0002e9 93fa      	ST   -Y,R31
0002ea 93ea      	ST   -Y,R30
0002eb 940e 0aef 	CALL SUBOPT_0x15
0002ed 940e 0b18 	CALL SUBOPT_0x1A
                 ; 0000 00E0                 LCD_I2C_setCursor(0, 1);
0002ef c055      	RJMP _0x37
                 ; 0000 00E1                 LCD_I2C_puts(buffer_lcd);
                 ; 0000 00E2                 break;
                 ; 0000 00E3         case 3:
                 _0x2C:
0002f0 30e3      	CPI  R30,LOW(0x3)
0002f1 e0a0      	LDI  R26,HIGH(0x3)
0002f2 07fa      	CPC  R31,R26
0002f3 f519      	BRNE _0x2D
                 ; 0000 00E4                 sprintf(buffer_lcd, "Eff: %6.1f[%%]    ", g_eff);
0002f4 940e 0b01 	CALL SUBOPT_0x17
                +
0002f6 efe1     +LDI R30 , LOW ( 2 * _0x0 + ( 137 ) )
0002f7 e0f0     +LDI R31 , HIGH ( 2 * _0x0 + ( 137 ) )
                 	__POINTW1FN _0x0,137
0002f8 93fa      	ST   -Y,R31
0002f9 93ea      	ST   -Y,R30
0002fa 91e0 0365 	LDS  R30,_g_eff
0002fc 91f0 0366 	LDS  R31,_g_eff+1
0002fe 9160 0367 	LDS  R22,_g_eff+2
000300 9170 0368 	LDS  R23,_g_eff+3
000302 940e 0b18 	CALL SUBOPT_0x1A
                 ; 0000 00E5                 LCD_I2C_setCursor(0, 0);
000304 940e 0a84 	CALL SUBOPT_0x8
                 ; 0000 00E6                 LCD_I2C_puts(buffer_lcd);
000306 940e 0b13 	CALL SUBOPT_0x19
                 ; 0000 00E7                 sprintf(buffer_lcd, "Vbat: %5.2f[V]    ", g_vbat);
                +
000308 e0e4     +LDI R30 , LOW ( 2 * _0x0 + ( 156 ) )
000309 e0f1     +LDI R31 , HIGH ( 2 * _0x0 + ( 156 ) )
                 	__POINTW1FN _0x0,156
00030a 93fa      	ST   -Y,R31
00030b 93ea      	ST   -Y,R30
00030c 91e0 0351 	LDS  R30,_g_vbat
00030e 91f0 0352 	LDS  R31,_g_vbat+1
000310 9160 0353 	LDS  R22,_g_vbat+2
000312 9170 0354 	LDS  R23,_g_vbat+3
000314 940e 0b18 	CALL SUBOPT_0x1A
                 ; 0000 00E8                 LCD_I2C_setCursor(0, 1);
000316 c02e      	RJMP _0x37
                 ; 0000 00E9                 LCD_I2C_puts(buffer_lcd);
                 ; 0000 00EA                 break;
                 ; 0000 00EB         case 4:
                 _0x2D:
000317 30e4      	CPI  R30,LOW(0x4)
000318 e0a0      	LDI  R26,HIGH(0x4)
000319 07fa      	CPC  R31,R26
00031a f589      	BRNE _0x29
                 ; 0000 00EC                 sprintf(buffer_lcd, "%04d %04d %04d ", (int)g_pre_cent, (int)g_pre_csal, (int)g_pre_vbat);
00031b 940e 0b01 	CALL SUBOPT_0x17
                +
00031d e1e7     +LDI R30 , LOW ( 2 * _0x0 + ( 175 ) )
00031e e0f1     +LDI R31 , HIGH ( 2 * _0x0 + ( 175 ) )
                 	__POINTW1FN _0x0,175
00031f 93fa      	ST   -Y,R31
000320 93ea      	ST   -Y,R30
000321 940e 0a90 	CALL SUBOPT_0xA
000323 940e 0b1f 	CALL SUBOPT_0x1B
000325 940e 0aa0 	CALL SUBOPT_0xC
000327 940e 0b1f 	CALL SUBOPT_0x1B
000329 940e 0ab2 	CALL SUBOPT_0xE
00032b 940e 0b1f 	CALL SUBOPT_0x1B
00032d e08c      	LDI  R24,12
00032e 940e 06e4 	CALL _sprintf
000330 9660      	ADIW R28,16
                 ; 0000 00ED                 LCD_I2C_setCursor(0, 0);
000331 940e 0a84 	CALL SUBOPT_0x8
                 ; 0000 00EE                 LCD_I2C_puts(buffer_lcd);
000333 940e 0b13 	CALL SUBOPT_0x19
                 ; 0000 00EF                 sprintf(buffer_lcd, "%04d %04d         ", (int)g_pre_vent, (int)g_pre_vsal);
                +
000335 e2e7     +LDI R30 , LOW ( 2 * _0x0 + ( 191 ) )
000336 e0f1     +LDI R31 , HIGH ( 2 * _0x0 + ( 191 ) )
                 	__POINTW1FN _0x0,191
000337 93fa      	ST   -Y,R31
000338 93ea      	ST   -Y,R30
000339 940e 0aa9 	CALL SUBOPT_0xD
00033b 940e 0b1f 	CALL SUBOPT_0x1B
00033d 940e 0ac2 	CALL SUBOPT_0x10
00033f 940e 0b1f 	CALL SUBOPT_0x1B
000341 e088      	LDI  R24,8
000342 940e 06e4 	CALL _sprintf
000344 962c      	ADIW R28,12
                 ; 0000 00F0                 LCD_I2C_setCursor(0, 1);
                 _0x37:
000345 e0e0      	LDI  R30,LOW(0)
000346 93ea      	ST   -Y,R30
000347 e0a1      	LDI  R26,LOW(1)
000348 dddd      	RCALL _LCD_I2C_setCursor
                 ; 0000 00F1                 LCD_I2C_puts(buffer_lcd);
000349 e2a1      	LDI  R26,LOW(_buffer_lcd)
00034a e0b3      	LDI  R27,HIGH(_buffer_lcd)
00034b de53      	RCALL _LCD_I2C_puts
                 ; 0000 00F2                 break;
                 ; 0000 00F3 
                 ; 0000 00F4     }
                 _0x29:
                 ; 0000 00F5 
                 ; 0000 00F6     if(boton_display)
00034c 2066      	TST  R6
00034d f049      	BREQ _0x2F
                 ; 0000 00F7     {
                 ; 0000 00F8       desplegar_estado = (++desplegar_estado)%5 ;
00034e 9483      	INC  R8
00034f 2da8      	MOV  R26,R8
000350 27bb      	CLR  R27
000351 e0e5      	LDI  R30,LOW(5)
000352 e0f0      	LDI  R31,HIGH(5)
000353 940e 0e4a 	CALL __MODW21
000355 2e8e      	MOV  R8,R30
                 ; 0000 00F9       boton_display = 0;
000356 2466      	CLR  R6
                 ; 0000 00FA     }
                 ; 0000 00FB     if(boton_on_off)
                 _0x2F:
000357 2055      	TST  R5
000358 f059      	BREQ _0x30
                 ; 0000 00FC     {
                 ; 0000 00FD       SEPIC_EN = !(SEPIC_EN);
000359 9b5d      	SBIS 0xB,5
00035a c002      	RJMP _0x31
00035b 985d      	CBI  0xB,5
00035c c001      	RJMP _0x32
                 _0x31:
00035d 9a5d      	SBI  0xB,5
                 _0x32:
                 ; 0000 00FE       LED_ROJO =  SEPIC_EN;
00035e 995d      	SBIC 0xB,5
00035f c002      	RJMP _0x33
000360 982e      	CBI  0x5,6
000361 c001      	RJMP _0x34
                 _0x33:
000362 9a2e      	SBI  0x5,6
                 _0x34:
                 ; 0000 00FF       boton_on_off = 0;
000363 2455      	CLR  R5
                 ; 0000 0100     }
                 ; 0000 0101     //delay_ms(100);
                 ; 0000 0102 
                 ; 0000 0103 
                 ; 0000 0104 }
                 _0x30:
000364 ceac      	RJMP _0x20
                 ; 0000 0105 
                 ; 0000 0106 
                 ; 0000 0107 }
                 _0x35:
000365 cfff      	RJMP _0x35
                 ; .FEND
                 
                 	.DSEG
                 _0x1F:
000300           	.BYTE 0x19
                 ;
                 ;void hw_init(void)
                 ; 0000 010A {
                 
                 	.CSEG
                 _hw_init:
                 ; .FSTART _hw_init
                 ; 0000 010B // Input/Output Ports initialization
                 ; 0000 010C // Port B initialization
                 ; 0000 010D // Function: Bit7=Out Bit6=Out Bit5=In Bit4=In Bit3=In Bit2=In Bit1=In Bit0=In
                 ; 0000 010E DDRB=(1<<DDB7) | (1<<DDB6) | (0<<DDB5) | (0<<DDB4) | (0<<DDB3) | (0<<DDB2) | (0<<DDB1) | (0<<DDB0);
000366 ece0      	LDI  R30,LOW(192)
000367 b9e4      	OUT  0x4,R30
                 ; 0000 010F // State: Bit7=0 Bit6=0 Bit5=T Bit4=T Bit3=T Bit2=T Bit1=T Bit0=T
                 ; 0000 0110 PORTB=(0<<PORTB7) | (0<<PORTB6) | (0<<PORTB5) | (0<<PORTB4) | (0<<PORTB3) | (0<<PORTB2) | (0<<PORTB1) | (0<<PORTB0);
000368 e0e0      	LDI  R30,LOW(0)
000369 b9e5      	OUT  0x5,R30
                 ; 0000 0111 
                 ; 0000 0112 // Port C initialization
                 ; 0000 0113 // Function: Bit6=In Bit5=In Bit4=In Bit3=In Bit2=In Bit1=In Bit0=In
                 ; 0000 0114 DDRC=(0<<DDC6) | (0<<DDC5) | (0<<DDC4) | (0<<DDC3) | (0<<DDC2) | (0<<DDC1) | (0<<DDC0);
00036a b9e7      	OUT  0x7,R30
                 ; 0000 0115 // State: Bit6=T Bit5=T Bit4=T Bit3=T Bit2=T Bit1=T Bit0=T
                 ; 0000 0116 PORTC=(0<<PORTC6) | (0<<PORTC5) | (0<<PORTC4) | (0<<PORTC3) | (0<<PORTC2) | (0<<PORTC1) | (0<<PORTC0);
00036b b9e8      	OUT  0x8,R30
                 ; 0000 0117 
                 ; 0000 0118 // Port D initialization
                 ; 0000 0119 // Function: Bit7=In Bit6=In Bit5=Out Bit4=In Bit3=In Bit2=In Bit1=In Bit0=In
                 ; 0000 011A DDRD=(0<<DDD7) | (0<<DDD6) | (1<<DDD5) | (0<<DDD4) | (0<<DDD3) | (0<<DDD2) | (0<<DDD1) | (0<<DDD0);
00036c e2e0      	LDI  R30,LOW(32)
00036d b9ea      	OUT  0xA,R30
                 ; 0000 011B // State: Bit7=T Bit6=T Bit5=1 Bit4=T Bit3=T Bit2=T Bit1=T Bit0=T
                 ; 0000 011C PORTD=(0<<PORTD7) | (0<<PORTD6) | (1<<PORTD5) | (0<<PORTD4) | (0<<PORTD3) | (0<<PORTD2) | (0<<PORTD1) | (0<<PORTD0);
00036e b9eb      	OUT  0xB,R30
                 ; 0000 011D 
                 ; 0000 011E // Timer/Counter 0 initialization
                 ; 0000 011F // Clock source: System Clock
                 ; 0000 0120 // Clock value: Timer 0 Stopped
                 ; 0000 0121 // Mode: Normal top=0xFF
                 ; 0000 0122 // OC0A output: Disconnected
                 ; 0000 0123 // OC0B output: Disconnected
                 ; 0000 0124 TCCR0A=(0<<COM0A1) | (0<<COM0A0) | (0<<COM0B1) | (0<<COM0B0) | (0<<WGM01) | (0<<WGM00);
00036f e0e0      	LDI  R30,LOW(0)
000370 bde4      	OUT  0x24,R30
                 ; 0000 0125 TCCR0B=(0<<WGM02) | (0<<CS02) | (0<<CS01) | (0<<CS00);
000371 bde5      	OUT  0x25,R30
                 ; 0000 0126 TCNT0=0x00;
000372 bde6      	OUT  0x26,R30
                 ; 0000 0127 OCR0A=0x00;
000373 bde7      	OUT  0x27,R30
                 ; 0000 0128 OCR0B=0x00;
000374 bde8      	OUT  0x28,R30
                 ; 0000 0129 
                 ; 0000 012A // Timer/Counter 1 initialization
                 ; 0000 012B // Clock source: System Clock
                 ; 0000 012C // Clock value: Timer1 Stopped
                 ; 0000 012D // Mode: Normal top=0xFFFF
                 ; 0000 012E // OC1A output: Disconnected
                 ; 0000 012F // OC1B output: Disconnected
                 ; 0000 0130 // Noise Canceler: Off
                 ; 0000 0131 // Input Capture on Falling Edge
                 ; 0000 0132 // Timer1 Overflow Interrupt: Off
                 ; 0000 0133 // Input Capture Interrupt: Off
                 ; 0000 0134 // Compare A Match Interrupt: Off
                 ; 0000 0135 // Compare B Match Interrupt: Off
                 ; 0000 0136 TCCR1A=(0<<COM1A1) | (0<<COM1A0) | (0<<COM1B1) | (0<<COM1B0) | (0<<WGM11) | (0<<WGM10);
000375 93e0 0080 	STS  128,R30
                 ; 0000 0137 TCCR1B=(0<<ICNC1) | (0<<ICES1) | (0<<WGM13) | (0<<WGM12) | (0<<CS12) | (0<<CS11) | (0<<CS10);
000377 93e0 0081 	STS  129,R30
                 ; 0000 0138 TCNT1H=0x00;
000379 93e0 0085 	STS  133,R30
                 ; 0000 0139 TCNT1L=0x00;
00037b 93e0 0084 	STS  132,R30
                 ; 0000 013A ICR1H=0x00;
00037d 93e0 0087 	STS  135,R30
                 ; 0000 013B ICR1L=0x00;
00037f 93e0 0086 	STS  134,R30
                 ; 0000 013C OCR1AH=0x00;
000381 93e0 0089 	STS  137,R30
                 ; 0000 013D OCR1AL=0x00;
000383 93e0 0088 	STS  136,R30
                 ; 0000 013E OCR1BH=0x00;
000385 93e0 008b 	STS  139,R30
                 ; 0000 013F OCR1BL=0x00;
000387 93e0 008a 	STS  138,R30
                 ; 0000 0140 
                 ; 0000 0141 // Timer/Counter 2 initialization
                 ; 0000 0142 // Clock source: System Clock
                 ; 0000 0143 // Clock value: Timer2 Stopped
                 ; 0000 0144 // Mode: Normal top=0xFF
                 ; 0000 0145 // OC2A output: Disconnected
                 ; 0000 0146 // OC2B output: Disconnected
                 ; 0000 0147 ASSR=(0<<EXCLK) | (0<<AS2);
000389 93e0 00b6 	STS  182,R30
                 ; 0000 0148 TCCR2A=(0<<COM2A1) | (0<<COM2A0) | (0<<COM2B1) | (0<<COM2B0) | (0<<WGM21) | (0<<WGM20);
00038b 93e0 00b0 	STS  176,R30
                 ; 0000 0149 TCCR2B=(0<<WGM22) | (0<<CS22) | (0<<CS21) | (0<<CS20);
00038d 93e0 00b1 	STS  177,R30
                 ; 0000 014A TCNT2=0x00;
00038f 93e0 00b2 	STS  178,R30
                 ; 0000 014B OCR2A=0x00;
000391 93e0 00b3 	STS  179,R30
                 ; 0000 014C OCR2B=0x00;
000393 93e0 00b4 	STS  180,R30
                 ; 0000 014D 
                 ; 0000 014E // Timer/Counter 0 Interrupt(s) initialization
                 ; 0000 014F TIMSK0=(0<<OCIE0B) | (0<<OCIE0A) | (0<<TOIE0);
000395 93e0 006e 	STS  110,R30
                 ; 0000 0150 
                 ; 0000 0151 // Timer/Counter 1 Interrupt(s) initialization
                 ; 0000 0152 TIMSK1=(0<<ICIE1) | (0<<OCIE1B) | (0<<OCIE1A) | (0<<TOIE1);
000397 93e0 006f 	STS  111,R30
                 ; 0000 0153 
                 ; 0000 0154 // Timer/Counter 2 Interrupt(s) initialization
                 ; 0000 0155 TIMSK2=(0<<OCIE2B) | (0<<OCIE2A) | (0<<TOIE2);
000399 93e0 0070 	STS  112,R30
                 ; 0000 0156 
                 ; 0000 0157 // External Interrupt(s) initialization
                 ; 0000 0158 // INT0: On
                 ; 0000 0159 // INT0 Mode: Falling Edge
                 ; 0000 015A // INT1: On
                 ; 0000 015B // INT1 Mode: Falling Edge
                 ; 0000 015C // Interrupt on any change on pins PCINT0-7: Off
                 ; 0000 015D // Interrupt on any change on pins PCINT8-14: Off
                 ; 0000 015E // Interrupt on any change on pins PCINT16-23: Off
                 ; 0000 015F EICRA=(1<<ISC11) | (0<<ISC10) | (1<<ISC01) | (0<<ISC00);
00039b e0ea      	LDI  R30,LOW(10)
00039c 93e0 0069 	STS  105,R30
                 ; 0000 0160 EIMSK=(1<<INT1) | (1<<INT0);
00039e e0e3      	LDI  R30,LOW(3)
00039f bbed      	OUT  0x1D,R30
                 ; 0000 0161 EIFR=(1<<INTF1) | (1<<INTF0);
0003a0 bbec      	OUT  0x1C,R30
                 ; 0000 0162 PCICR=(0<<PCIE2) | (0<<PCIE1) | (0<<PCIE0);
0003a1 e0e0      	LDI  R30,LOW(0)
0003a2 93e0 0068 	STS  104,R30
                 ; 0000 0163 
                 ; 0000 0164 // USART initialization
                 ; 0000 0165 // USART disabled
                 ; 0000 0166 UCSR0B=(0<<RXCIE0) | (0<<TXCIE0) | (0<<UDRIE0) | (0<<RXEN0) | (0<<TXEN0) | (0<<UCSZ02) | (0<<RXB80) | (0<<TXB80);
0003a4 93e0 00c1 	STS  193,R30
                 ; 0000 0167 
                 ; 0000 0168 // Analog Comparator initialization
                 ; 0000 0169 // Analog Comparator: Off
                 ; 0000 016A // The Analog Comparator's positive input is
                 ; 0000 016B // connected to the AIN0 pin
                 ; 0000 016C // The Analog Comparator's negative input is
                 ; 0000 016D // connected to the AIN1 pin
                 ; 0000 016E ACSR=(1<<ACD) | (0<<ACBG) | (0<<ACO) | (0<<ACI) | (0<<ACIE) | (0<<ACIC) | (0<<ACIS1) | (0<<ACIS0);
0003a6 e8e0      	LDI  R30,LOW(128)
0003a7 bfe0      	OUT  0x30,R30
                 ; 0000 016F // Digital input buffer on AIN0: On
                 ; 0000 0170 // Digital input buffer on AIN1: On
                 ; 0000 0171 DIDR1=(0<<AIN0D) | (0<<AIN1D);
0003a8 e0e0      	LDI  R30,LOW(0)
0003a9 93e0 007f 	STS  127,R30
                 ; 0000 0172 
                 ; 0000 0173 // ADC initialization
                 ; 0000 0174 // ADC Clock frequency: 125.000 kHz
                 ; 0000 0175 // ADC Voltage Reference: AREF pin
                 ; 0000 0176 // ADC Auto Trigger Source: ADC Stopped
                 ; 0000 0177 // Digital input buffers on ADC0: Off, ADC1: Off, ADC2: Off, ADC3: Off
                 ; 0000 0178 // ADC4: On, ADC5: On
                 ; 0000 0179 DIDR0=(0<<ADC5D) | (0<<ADC4D) | (1<<ADC3D) | (1<<ADC2D) | (1<<ADC1D) | (1<<ADC0D);
0003ab e0ef      	LDI  R30,LOW(15)
0003ac 93e0 007e 	STS  126,R30
                 ; 0000 017A ADMUX=ADC_VREF_TYPE;
0003ae e4e0      	LDI  R30,LOW(64)
0003af 93e0 007c 	STS  124,R30
                 ; 0000 017B ADCSRA=(1<<ADEN) | (0<<ADSC) | (0<<ADATE) | (0<<ADIF) | (0<<ADIE) | (1<<ADPS2) | (1<<ADPS1) | (0<<ADPS0);
0003b1 e8e6      	LDI  R30,LOW(134)
0003b2 93e0 007a 	STS  122,R30
                 ; 0000 017C ADCSRB=(0<<ADTS2) | (0<<ADTS1) | (0<<ADTS0);
0003b4 e0e0      	LDI  R30,LOW(0)
0003b5 93e0 007b 	STS  123,R30
                 ; 0000 017D 
                 ; 0000 017E // SPI initialization
                 ; 0000 017F // SPI disabled
                 ; 0000 0180 SPCR=(0<<SPIE) | (0<<SPE) | (0<<DORD) | (0<<MSTR) | (0<<CPOL) | (0<<CPHA) | (0<<SPR1) | (0<<SPR0);
0003b7 bdec      	OUT  0x2C,R30
                 ; 0000 0181 
                 ; 0000 0182 // TWI initialization
                 ; 0000 0183 // Mode: TWI Master
                 ; 0000 0184 // Bit Rate: 100 kHz
                 ; 0000 0185 twi_master_init(100);
0003b8 e6a4      	LDI  R26,LOW(100)
0003b9 e0b0      	LDI  R27,0
0003ba 940e 0718 	CALL _twi_master_init
                 ; 0000 0186 
                 ; 0000 0187 // Global enable interrupts
                 ; 0000 0188 #asm("sei")
0003bc 9478      	sei
                 ; 0000 0189 }
0003bd 9508      	RET
                 ; .FEND
                 ;
                 ;
                 ;
                 	#ifndef __SLEEP_DEFINED__
                 	#endif
                 
                 	.CSEG
                 _put_buff_G100:
                 ; .FSTART _put_buff_G100
0003be 93ba      	ST   -Y,R27
0003bf 93aa      	ST   -Y,R26
0003c0 931a      	ST   -Y,R17
0003c1 930a      	ST   -Y,R16
0003c2 81aa      	LDD  R26,Y+2
0003c3 81bb      	LDD  R27,Y+2+1
0003c4 9612      	ADIW R26,2
0003c5 940e 0e68 	CALL __GETW1P
0003c7 9730      	SBIW R30,0
0003c8 f129      	BREQ _0x2000016
0003c9 81aa      	LDD  R26,Y+2
0003ca 81bb      	LDD  R27,Y+2+1
0003cb 9614      	ADIW R26,4
0003cc 940e 0e68 	CALL __GETW1P
0003ce 018f      	MOVW R16,R30
0003cf 9730      	SBIW R30,0
0003d0 f061      	BREQ _0x2000018
                +
0003d1 3002     +CPI R16 , LOW ( 2 )
0003d2 e0e0     +LDI R30 , HIGH ( 2 )
0003d3 071e     +CPC R17 , R30
                 	__CPWRN 16,17,2
0003d4 f080      	BRLO _0x2000019
0003d5 01f8      	MOVW R30,R16
0003d6 9731      	SBIW R30,1
0003d7 018f      	MOVW R16,R30
                +
0003d8 81aa     +LDD R26 , Y + 2
0003d9 81bb     +LDD R27 , Y + 2 + 1
0003da 9614     +ADIW R26 , 4
0003db 93ed     +ST X + , R30
0003dc 93fc     +ST X , R31
                 	__PUTW1SNS 2,4
                 _0x2000018:
0003dd 81aa      	LDD  R26,Y+2
0003de 81bb      	LDD  R27,Y+2+1
0003df 9612      	ADIW R26,2
0003e0 940e 0b26 	CALL SUBOPT_0x1C
0003e2 9731      	SBIW R30,1
0003e3 81ac      	LDD  R26,Y+4
0003e4 83a0      	STD  Z+0,R26
                 _0x2000019:
0003e5 81aa      	LDD  R26,Y+2
0003e6 81bb      	LDD  R27,Y+2+1
0003e7 940e 0e68 	CALL __GETW1P
0003e9 23ff      	TST  R31
0003ea f012      	BRMI _0x200001A
0003eb 940e 0b26 	CALL SUBOPT_0x1C
                 _0x200001A:
0003ed c006      	RJMP _0x200001B
                 _0x2000016:
0003ee 81aa      	LDD  R26,Y+2
0003ef 81bb      	LDD  R27,Y+2+1
0003f0 efef      	LDI  R30,LOW(65535)
0003f1 efff      	LDI  R31,HIGH(65535)
0003f2 93ed      	ST   X+,R30
0003f3 93fc      	ST   X,R31
                 _0x200001B:
0003f4 8119      	LDD  R17,Y+1
0003f5 8108      	LDD  R16,Y+0
0003f6 9625      	ADIW R28,5
0003f7 9508      	RET
                 ; .FEND
                 __ftoe_G100:
                 ; .FSTART __ftoe_G100
0003f8 940e 0b2c 	CALL SUBOPT_0x1D
0003fa e8e0      	LDI  R30,LOW(128)
0003fb 83ea      	STD  Y+2,R30
0003fc e3ef      	LDI  R30,LOW(63)
0003fd 83eb      	STD  Y+3,R30
0003fe 940e 0eab 	CALL __SAVELOCR4
000400 85ee      	LDD  R30,Y+14
000401 85ff      	LDD  R31,Y+14+1
000402 3fef      	CPI  R30,LOW(0xFFFF)
000403 efaf      	LDI  R26,HIGH(0xFFFF)
000404 07fa      	CPC  R31,R26
000405 f449      	BRNE _0x200001F
000406 85e8      	LDD  R30,Y+8
000407 85f9      	LDD  R31,Y+8+1
000408 93fa      	ST   -Y,R31
000409 93ea      	ST   -Y,R30
                +
00040a e3aa     +LDI R26 , LOW ( 2 * _0x2000000 + ( 0 ) )
00040b e0b1     +LDI R27 , HIGH ( 2 * _0x2000000 + ( 0 ) )
                 	__POINTW2FN _0x2000000,0
00040c 940e 092b 	CALL _strcpyf
00040e c0b7      	RJMP _0x20C0007
                 _0x200001F:
00040f 3fef      	CPI  R30,LOW(0x7FFF)
000410 e7af      	LDI  R26,HIGH(0x7FFF)
000411 07fa      	CPC  R31,R26
000412 f449      	BRNE _0x200001E
000413 85e8      	LDD  R30,Y+8
000414 85f9      	LDD  R31,Y+8+1
000415 93fa      	ST   -Y,R31
000416 93ea      	ST   -Y,R30
                +
000417 e3ab     +LDI R26 , LOW ( 2 * _0x2000000 + ( 1 ) )
000418 e0b1     +LDI R27 , HIGH ( 2 * _0x2000000 + ( 1 ) )
                 	__POINTW2FN _0x2000000,1
000419 940e 092b 	CALL _strcpyf
00041b c0aa      	RJMP _0x20C0007
                 _0x200001E:
00041c 85ab      	LDD  R26,Y+11
00041d 30a7      	CPI  R26,LOW(0x7)
00041e f010      	BRLO _0x2000021
00041f e0e6      	LDI  R30,LOW(6)
000420 87eb      	STD  Y+11,R30
                 _0x2000021:
000421 851b      	LDD  R17,Y+11
                 _0x2000022:
000422 2fe1      	MOV  R30,R17
000423 5011      	SUBI R17,1
000424 30e0      	CPI  R30,0
000425 f019      	BREQ _0x2000024
000426 940e 0b33 	CALL SUBOPT_0x1E
000428 cff9      	RJMP _0x2000022
                 _0x2000024:
                +
000429 85ec     +LDD R30 , Y + 12
00042a 85fd     +LDD R31 , Y + 12 + 1
00042b 856e     +LDD R22 , Y + 12 + 2
00042c 857f     +LDD R23 , Y + 12 + 3
                 	__GETD1S 12
00042d 940e 0ea5 	CALL __CPD10
00042f f421      	BRNE _0x2000025
000430 e030      	LDI  R19,LOW(0)
000431 940e 0b33 	CALL SUBOPT_0x1E
000433 c02d      	RJMP _0x2000026
                 _0x2000025:
000434 853b      	LDD  R19,Y+11
000435 940e 0b42 	CALL SUBOPT_0x1F
000437 f009      	BREQ PC+2
000438 f408      	BRCC PC+2
000439 c00b      	RJMP _0x2000027
00043a 940e 0b33 	CALL SUBOPT_0x1E
                 _0x2000028:
00043c 940e 0b42 	CALL SUBOPT_0x1F
00043e f028      	BRLO _0x200002A
00043f 940e 0b4d 	CALL SUBOPT_0x20
000441 940e 0b52 	CALL SUBOPT_0x21
000443 cff8      	RJMP _0x2000028
                 _0x200002A:
000444 c00d      	RJMP _0x200002B
                 _0x2000027:
                 _0x200002C:
000445 940e 0b42 	CALL SUBOPT_0x1F
000447 f440      	BRSH _0x200002E
000448 940e 0b4d 	CALL SUBOPT_0x20
00044a 940e 0b5e 	CALL SUBOPT_0x22
00044c 940e 0b65 	CALL SUBOPT_0x23
00044e 5031      	SUBI R19,LOW(1)
00044f cff5      	RJMP _0x200002C
                 _0x200002E:
000450 940e 0b33 	CALL SUBOPT_0x1E
                 _0x200002B:
                +
000452 85ec     +LDD R30 , Y + 12
000453 85fd     +LDD R31 , Y + 12 + 1
000454 856e     +LDD R22 , Y + 12 + 2
000455 857f     +LDD R23 , Y + 12 + 3
                 	__GETD1S 12
000456 940e 0b6a 	CALL SUBOPT_0x24
000458 940e 0b65 	CALL SUBOPT_0x23
00045a 940e 0b42 	CALL SUBOPT_0x1F
00045c f020      	BRLO _0x200002F
00045d 940e 0b4d 	CALL SUBOPT_0x20
00045f 940e 0b52 	CALL SUBOPT_0x21
                 _0x200002F:
                 _0x2000026:
000461 e010      	LDI  R17,LOW(0)
                 _0x2000030:
000462 85eb      	LDD  R30,Y+11
000463 17e1      	CP   R30,R17
000464 f1a8      	BRLO _0x2000032
                +
000465 81ac     +LDD R26 , Y + 4
000466 81bd     +LDD R27 , Y + 4 + 1
000467 818e     +LDD R24 , Y + 4 + 2
000468 819f     +LDD R25 , Y + 4 + 3
                 	__GETD2S 4
000469 940e 0b71 	CALL SUBOPT_0x25
00046b 940e 0b6a 	CALL SUBOPT_0x24
00046d 01df      	MOVW R26,R30
00046e 01cb      	MOVW R24,R22
00046f 940e 0982 	CALL _floor
                +
000471 83ec     +STD Y + 4 , R30
000472 83fd     +STD Y + 4 + 1 , R31
000473 836e     +STD Y + 4 + 2 , R22
000474 837f     +STD Y + 4 + 3 , R23
                 	__PUTD1S 4
000475 940e 0b4d 	CALL SUBOPT_0x20
000477 940e 0d6e 	CALL __DIVF21
000479 940e 0c5d 	CALL __CFD1U
00047b 2f0e      	MOV  R16,R30
00047c 940e 0b78 	CALL SUBOPT_0x26
00047e 940e 0b7f 	CALL SUBOPT_0x27
000480 27ff      	CLR  R31
000481 2766      	CLR  R22
000482 2777      	CLR  R23
000483 940e 0c96 	CALL __CDF1
                +
000485 81ac     +LDD R26 , Y + 4
000486 81bd     +LDD R27 , Y + 4 + 1
000487 818e     +LDD R24 , Y + 4 + 2
000488 819f     +LDD R25 , Y + 4 + 3
                 	__GETD2S 4
000489 940e 0d20 	CALL __MULF12
00048b 940e 0b4d 	CALL SUBOPT_0x20
00048d 940e 0b84 	CALL SUBOPT_0x28
00048f 940e 0b65 	CALL SUBOPT_0x23
000491 2fe1      	MOV  R30,R17
000492 5f1f      	SUBI R17,-1
000493 30e0      	CPI  R30,0
000494 f669      	BRNE _0x2000030
000495 940e 0b78 	CALL SUBOPT_0x26
000497 e2ee      	LDI  R30,LOW(46)
000498 93ec      	ST   X,R30
000499 cfc8      	RJMP _0x2000030
                 _0x2000032:
00049a 940e 0b89 	CALL SUBOPT_0x29
00049c 9731      	SBIW R30,1
00049d 85aa      	LDD  R26,Y+10
00049e 83a0      	STD  Z+0,R26
00049f 3030      	CPI  R19,0
0004a0 f42c      	BRGE _0x2000034
0004a1 9531      	NEG  R19
0004a2 85a8      	LDD  R26,Y+8
0004a3 85b9      	LDD  R27,Y+8+1
0004a4 e2ed      	LDI  R30,LOW(45)
0004a5 c003      	RJMP _0x2000119
                 _0x2000034:
0004a6 85a8      	LDD  R26,Y+8
0004a7 85b9      	LDD  R27,Y+8+1
0004a8 e2eb      	LDI  R30,LOW(43)
                 _0x2000119:
0004a9 93ec      	ST   X,R30
0004aa 940e 0b89 	CALL SUBOPT_0x29
0004ac 940e 0b89 	CALL SUBOPT_0x29
0004ae 9731      	SBIW R30,1
0004af 01bf      	MOVW R22,R30
0004b0 2fa3      	MOV  R26,R19
0004b1 e0ea      	LDI  R30,LOW(10)
0004b2 940e 0e01 	CALL __DIVB21
0004b4 5de0      	SUBI R30,-LOW(48)
0004b5 01db      	MOVW R26,R22
0004b6 93ec      	ST   X,R30
0004b7 940e 0b89 	CALL SUBOPT_0x29
0004b9 9731      	SBIW R30,1
0004ba 01bf      	MOVW R22,R30
0004bb 2fa3      	MOV  R26,R19
0004bc e0ea      	LDI  R30,LOW(10)
0004bd 940e 0e3e 	CALL __MODB21
0004bf 5de0      	SUBI R30,-LOW(48)
0004c0 01db      	MOVW R26,R22
0004c1 93ec      	ST   X,R30
0004c2 85a8      	LDD  R26,Y+8
0004c3 85b9      	LDD  R27,Y+8+1
0004c4 e0e0      	LDI  R30,LOW(0)
0004c5 93ec      	ST   X,R30
                 _0x20C0007:
0004c6 940e 0eb2 	CALL __LOADLOCR4
0004c8 9660      	ADIW R28,16
0004c9 9508      	RET
                 ; .FEND
                 __print_G100:
                 ; .FSTART __print_G100
0004ca 93ba      	ST   -Y,R27
0004cb 93aa      	ST   -Y,R26
0004cc 97ef      	SBIW R28,63
0004cd 9761      	SBIW R28,17
0004ce 940e 0ea9 	CALL __SAVELOCR6
0004d0 e010      	LDI  R17,0
                +
0004d1 01fe     +MOVW R30 , R28
0004d2 5ae8     +SUBI R30 , LOW ( - 88 )
0004d3 4fff     +SBCI R31 , HIGH ( - 88 )
0004d4 9001     +LD R0 , Z +
0004d5 81f0     +LD R31 , Z
0004d6 2de0     +MOV R30 , R0
                 	__GETW1SX 88
0004d7 87e8      	STD  Y+8,R30
0004d8 87f9      	STD  Y+8+1,R31
                +
0004d9 01fe     +MOVW R30 , R28
0004da 5aea     +SUBI R30 , LOW ( - 86 )
0004db 4fff     +SBCI R31 , HIGH ( - 86 )
0004dc 9001     +LD R0 , Z +
0004dd 81f0     +LD R31 , Z
0004de 2de0     +MOV R30 , R0
                 	__GETW1SX 86
0004df 83ee      	STD  Y+6,R30
0004e0 83ff      	STD  Y+6+1,R31
0004e1 81ae      	LDD  R26,Y+6
0004e2 81bf      	LDD  R27,Y+6+1
0004e3 e0e0      	LDI  R30,LOW(0)
0004e4 e0f0      	LDI  R31,HIGH(0)
0004e5 93ed      	ST   X+,R30
0004e6 93fc      	ST   X,R31
                 _0x2000036:
0004e7 01de      	MOVW R26,R28
0004e8 5aa4      	SUBI R26,LOW(-(92))
0004e9 4fbf      	SBCI R27,HIGH(-(92))
0004ea 940e 0b26 	CALL SUBOPT_0x1C
0004ec 9731      	SBIW R30,1
0004ed 91e4      	LPM  R30,Z
0004ee 2f2e      	MOV  R18,R30
0004ef 30e0      	CPI  R30,0
0004f0 f409      	BRNE PC+2
0004f1 c1e9      	RJMP _0x2000038
0004f2 2fe1      	MOV  R30,R17
0004f3 30e0      	CPI  R30,0
0004f4 f439      	BRNE _0x200003C
0004f5 3225      	CPI  R18,37
0004f6 f411      	BRNE _0x200003D
0004f7 e011      	LDI  R17,LOW(1)
0004f8 c002      	RJMP _0x200003E
                 _0x200003D:
0004f9 940e 0b8f 	CALL SUBOPT_0x2A
                 _0x200003E:
0004fb c1de      	RJMP _0x200003B
                 _0x200003C:
0004fc 30e1      	CPI  R30,LOW(0x1)
0004fd f4c1      	BRNE _0x200003F
0004fe 3225      	CPI  R18,37
0004ff f419      	BRNE _0x2000040
000500 940e 0b8f 	CALL SUBOPT_0x2A
000502 c1d6      	RJMP _0x200011A
                 _0x2000040:
000503 e012      	LDI  R17,LOW(2)
000504 e0e0      	LDI  R30,LOW(0)
000505 8bed      	STD  Y+21,R30
000506 e000      	LDI  R16,LOW(0)
000507 322d      	CPI  R18,45
000508 f411      	BRNE _0x2000041
000509 e001      	LDI  R16,LOW(1)
00050a c1cf      	RJMP _0x200003B
                 _0x2000041:
00050b 322b      	CPI  R18,43
00050c f419      	BRNE _0x2000042
00050d e2eb      	LDI  R30,LOW(43)
00050e 8bed      	STD  Y+21,R30
00050f c1ca      	RJMP _0x200003B
                 _0x2000042:
000510 3220      	CPI  R18,32
000511 f419      	BRNE _0x2000043
000512 e2e0      	LDI  R30,LOW(32)
000513 8bed      	STD  Y+21,R30
000514 c1c5      	RJMP _0x200003B
                 _0x2000043:
000515 c002      	RJMP _0x2000044
                 _0x200003F:
000516 30e2      	CPI  R30,LOW(0x2)
000517 f439      	BRNE _0x2000045
                 _0x2000044:
000518 e050      	LDI  R21,LOW(0)
000519 e013      	LDI  R17,LOW(3)
00051a 3320      	CPI  R18,48
00051b f411      	BRNE _0x2000046
00051c 6800      	ORI  R16,LOW(128)
00051d c1bc      	RJMP _0x200003B
                 _0x2000046:
00051e c002      	RJMP _0x2000047
                 _0x2000045:
00051f 30e3      	CPI  R30,LOW(0x3)
000520 f491      	BRNE _0x2000048
                 _0x2000047:
000521 3320      	CPI  R18,48
000522 f010      	BRLO _0x200004A
000523 332a      	CPI  R18,58
000524 f008      	BRLO _0x200004B
                 _0x200004A:
000525 c007      	RJMP _0x2000049
                 _0x200004B:
000526 e0aa      	LDI  R26,LOW(10)
000527 9f5a      	MUL  R21,R26
000528 2d50      	MOV  R21,R0
000529 2fe2      	MOV  R30,R18
00052a 53e0      	SUBI R30,LOW(48)
00052b 0f5e      	ADD  R21,R30
00052c c1ad      	RJMP _0x200003B
                 _0x2000049:
00052d e040      	LDI  R20,LOW(0)
00052e 322e      	CPI  R18,46
00052f f411      	BRNE _0x200004C
000530 e014      	LDI  R17,LOW(4)
000531 c1a8      	RJMP _0x200003B
                 _0x200004C:
000532 c00f      	RJMP _0x200004D
                 _0x2000048:
000533 30e4      	CPI  R30,LOW(0x4)
000534 f499      	BRNE _0x200004F
000535 3320      	CPI  R18,48
000536 f010      	BRLO _0x2000051
000537 332a      	CPI  R18,58
000538 f008      	BRLO _0x2000052
                 _0x2000051:
000539 c008      	RJMP _0x2000050
                 _0x2000052:
00053a 6200      	ORI  R16,LOW(32)
00053b e0aa      	LDI  R26,LOW(10)
00053c 9f4a      	MUL  R20,R26
00053d 2d40      	MOV  R20,R0
00053e 2fe2      	MOV  R30,R18
00053f 53e0      	SUBI R30,LOW(48)
000540 0f4e      	ADD  R20,R30
000541 c198      	RJMP _0x200003B
                 _0x2000050:
                 _0x200004D:
000542 362c      	CPI  R18,108
000543 f419      	BRNE _0x2000053
000544 6002      	ORI  R16,LOW(2)
000545 e015      	LDI  R17,LOW(5)
000546 c193      	RJMP _0x200003B
                 _0x2000053:
000547 c003      	RJMP _0x2000054
                 _0x200004F:
000548 30e5      	CPI  R30,LOW(0x5)
000549 f009      	BREQ PC+2
00054a c18f      	RJMP _0x200003B
                 _0x2000054:
00054b 2fe2      	MOV  R30,R18
00054c 36e3      	CPI  R30,LOW(0x63)
00054d f459      	BRNE _0x2000059
00054e 940e 0b96 	CALL SUBOPT_0x2B
000550 940e 0b9d 	CALL SUBOPT_0x2C
000552 940e 0b96 	CALL SUBOPT_0x2B
000554 81a4      	LDD  R26,Z+4
000555 93aa      	ST   -Y,R26
000556 940e 0ba4 	CALL SUBOPT_0x2D
000558 c180      	RJMP _0x200005A
                 _0x2000059:
000559 34e5      	CPI  R30,LOW(0x45)
00055a f011      	BREQ _0x200005D
00055b 36e5      	CPI  R30,LOW(0x65)
00055c f409      	BRNE _0x200005E
                 _0x200005D:
00055d c003      	RJMP _0x200005F
                 _0x200005E:
00055e 36e6      	CPI  R30,LOW(0x66)
00055f f009      	BREQ PC+2
000560 c048      	RJMP _0x2000060
                 _0x200005F:
000561 01fe      	MOVW R30,R28
000562 9676      	ADIW R30,22
000563 87ee      	STD  Y+14,R30
000564 87ff      	STD  Y+14+1,R31
000565 940e 0baa 	CALL SUBOPT_0x2E
000567 940e 0e6c 	CALL __GETD1P
000569 940e 0bb1 	CALL SUBOPT_0x2F
00056b 940e 0bb6 	CALL SUBOPT_0x30
00056d 85ad      	LDD  R26,Y+13
00056e 23aa      	TST  R26
00056f f032      	BRMI _0x2000061
000570 89ad      	LDD  R26,Y+21
000571 32ab      	CPI  R26,LOW(0x2B)
000572 f059      	BREQ _0x2000063
000573 32a0      	CPI  R26,LOW(0x20)
000574 f081      	BREQ _0x2000065
000575 c017      	RJMP _0x2000066
                 _0x2000061:
000576 940e 0bb8 	CALL SUBOPT_0x31
000578 940e 0c2a 	CALL __ANEGF1
00057a 940e 0bb1 	CALL SUBOPT_0x2F
00057c e2ed      	LDI  R30,LOW(45)
00057d 8bed      	STD  Y+21,R30
                 _0x2000063:
00057e ff07      	SBRS R16,7
00057f c005      	RJMP _0x2000067
000580 89ed      	LDD  R30,Y+21
000581 93ea      	ST   -Y,R30
000582 940e 0ba4 	CALL SUBOPT_0x2D
000584 c008      	RJMP _0x2000068
                 _0x2000067:
                 _0x2000065:
000585 85ee      	LDD  R30,Y+14
000586 85ff      	LDD  R31,Y+14+1
000587 9631      	ADIW R30,1
000588 87ee      	STD  Y+14,R30
000589 87ff      	STD  Y+14+1,R31
00058a 9731      	SBIW R30,1
00058b 89ad      	LDD  R26,Y+21
00058c 83a0      	STD  Z+0,R26
                 _0x2000068:
                 _0x2000066:
00058d ff05      	SBRS R16,5
00058e e046      	LDI  R20,LOW(6)
00058f 3626      	CPI  R18,102
000590 f451      	BRNE _0x200006A
000591 940e 0bb8 	CALL SUBOPT_0x31
000593 940e 0e86 	CALL __PUTPARD1
000595 934a      	ST   -Y,R20
000596 89ab      	LDD  R26,Y+19
000597 89bc      	LDD  R27,Y+19+1
000598 940e 0999 	CALL _ftoa
00059a c009      	RJMP _0x200006B
                 _0x200006A:
00059b 940e 0bb8 	CALL SUBOPT_0x31
00059d 940e 0e86 	CALL __PUTPARD1
00059f 934a      	ST   -Y,R20
0005a0 932a      	ST   -Y,R18
0005a1 89ac      	LDD  R26,Y+20
0005a2 89bd      	LDD  R27,Y+20+1
0005a3 de54      	RCALL __ftoe_G100
                 _0x200006B:
0005a4 01fe      	MOVW R30,R28
0005a5 9676      	ADIW R30,22
0005a6 940e 0bbd 	CALL SUBOPT_0x32
0005a8 c01e      	RJMP _0x200006C
                 _0x2000060:
0005a9 37e3      	CPI  R30,LOW(0x73)
0005aa f439      	BRNE _0x200006E
0005ab 940e 0bb6 	CALL SUBOPT_0x30
0005ad 940e 0bc5 	CALL SUBOPT_0x33
0005af 940e 0bbd 	CALL SUBOPT_0x32
0005b1 c00e      	RJMP _0x200006F
                 _0x200006E:
0005b2 37e0      	CPI  R30,LOW(0x70)
0005b3 f4c1      	BRNE _0x2000071
0005b4 940e 0bb6 	CALL SUBOPT_0x30
0005b6 940e 0bc5 	CALL SUBOPT_0x33
0005b8 87ee      	STD  Y+14,R30
0005b9 87ff      	STD  Y+14+1,R31
0005ba 85ae      	LDD  R26,Y+14
0005bb 85bf      	LDD  R27,Y+14+1
0005bc 940e 0944 	CALL _strlenf
0005be 2f1e      	MOV  R17,R30
0005bf 6008      	ORI  R16,LOW(8)
                 _0x200006F:
0005c0 770f      	ANDI R16,LOW(127)
0005c1 3040      	CPI  R20,0
0005c2 f011      	BREQ _0x2000073
0005c3 1741      	CP   R20,R17
0005c4 f008      	BRLO _0x2000074
                 _0x2000073:
0005c5 c001      	RJMP _0x2000072
                 _0x2000074:
0005c6 2f14      	MOV  R17,R20
                 _0x2000072:
                 _0x200006C:
0005c7 e040      	LDI  R20,LOW(0)
0005c8 e0e0      	LDI  R30,LOW(0)
0005c9 8bec      	STD  Y+20,R30
0005ca e030      	LDI  R19,LOW(0)
0005cb c06d      	RJMP _0x2000075
                 _0x2000071:
0005cc 36e4      	CPI  R30,LOW(0x64)
0005cd f011      	BREQ _0x2000078
0005ce 36e9      	CPI  R30,LOW(0x69)
0005cf f411      	BRNE _0x2000079
                 _0x2000078:
0005d0 6004      	ORI  R16,LOW(4)
0005d1 c002      	RJMP _0x200007A
                 _0x2000079:
0005d2 37e5      	CPI  R30,LOW(0x75)
0005d3 f4a1      	BRNE _0x200007B
                 _0x200007A:
0005d4 e0ea      	LDI  R30,LOW(10)
0005d5 8bec      	STD  Y+20,R30
0005d6 ff01      	SBRS R16,1
0005d7 c008      	RJMP _0x200007C
                +
0005d8 e0e0     +LDI R30 , LOW ( 0x3B9ACA00 )
0005d9 ecfa     +LDI R31 , HIGH ( 0x3B9ACA00 )
0005da e96a     +LDI R22 , BYTE3 ( 0x3B9ACA00 )
0005db e37b     +LDI R23 , BYTE4 ( 0x3B9ACA00 )
                 	__GETD1N 0x3B9ACA00
0005dc 940e 0bca 	CALL SUBOPT_0x34
0005de e01a      	LDI  R17,LOW(10)
0005df c022      	RJMP _0x200007D
                 _0x200007C:
                +
0005e0 e1e0     +LDI R30 , LOW ( 0x2710 )
0005e1 e2f7     +LDI R31 , HIGH ( 0x2710 )
0005e2 e060     +LDI R22 , BYTE3 ( 0x2710 )
0005e3 e070     +LDI R23 , BYTE4 ( 0x2710 )
                 	__GETD1N 0x2710
0005e4 940e 0bca 	CALL SUBOPT_0x34
0005e6 e015      	LDI  R17,LOW(5)
0005e7 c01a      	RJMP _0x200007D
                 _0x200007B:
0005e8 35e8      	CPI  R30,LOW(0x58)
0005e9 f411      	BRNE _0x200007F
0005ea 6008      	ORI  R16,LOW(8)
0005eb c003      	RJMP _0x2000080
                 _0x200007F:
0005ec 37e8      	CPI  R30,LOW(0x78)
0005ed f009      	BREQ PC+2
0005ee c0ea      	RJMP _0x20000BE
                 _0x2000080:
0005ef e1e0      	LDI  R30,LOW(16)
0005f0 8bec      	STD  Y+20,R30
0005f1 ff01      	SBRS R16,1
0005f2 c008      	RJMP _0x2000082
                +
0005f3 e0e0     +LDI R30 , LOW ( 0x10000000 )
0005f4 e0f0     +LDI R31 , HIGH ( 0x10000000 )
0005f5 e060     +LDI R22 , BYTE3 ( 0x10000000 )
0005f6 e170     +LDI R23 , BYTE4 ( 0x10000000 )
                 	__GETD1N 0x10000000
0005f7 940e 0bca 	CALL SUBOPT_0x34
0005f9 e018      	LDI  R17,LOW(8)
0005fa c007      	RJMP _0x200007D
                 _0x2000082:
                +
0005fb e0e0     +LDI R30 , LOW ( 0x1000 )
0005fc e1f0     +LDI R31 , HIGH ( 0x1000 )
0005fd e060     +LDI R22 , BYTE3 ( 0x1000 )
0005fe e070     +LDI R23 , BYTE4 ( 0x1000 )
                 	__GETD1N 0x1000
0005ff 940e 0bca 	CALL SUBOPT_0x34
000601 e014      	LDI  R17,LOW(4)
                 _0x200007D:
000602 3040      	CPI  R20,0
000603 f011      	BREQ _0x2000083
000604 770f      	ANDI R16,LOW(127)
000605 c001      	RJMP _0x2000084
                 _0x2000083:
000606 e041      	LDI  R20,LOW(1)
                 _0x2000084:
000607 ff01      	SBRS R16,1
000608 c008      	RJMP _0x2000085
000609 940e 0bb6 	CALL SUBOPT_0x30
00060b 940e 0baa 	CALL SUBOPT_0x2E
00060d 9614      	ADIW R26,4
00060e 940e 0e6c 	CALL __GETD1P
000610 c00f      	RJMP _0x200011B
                 _0x2000085:
000611 ff02      	SBRS R16,2
000612 c007      	RJMP _0x2000087
000613 940e 0bb6 	CALL SUBOPT_0x30
000615 940e 0bc5 	CALL SUBOPT_0x33
000617 940e 0de9 	CALL __CWD1
000619 c006      	RJMP _0x200011B
                 _0x2000087:
00061a 940e 0bb6 	CALL SUBOPT_0x30
00061c 940e 0bc5 	CALL SUBOPT_0x33
00061e 2766      	CLR  R22
00061f 2777      	CLR  R23
                 _0x200011B:
                +
000620 87ea     +STD Y + 10 , R30
000621 87fb     +STD Y + 10 + 1 , R31
000622 876c     +STD Y + 10 + 2 , R22
000623 877d     +STD Y + 10 + 3 , R23
                 	__PUTD1S 10
000624 ff02      	SBRS R16,2
000625 c012      	RJMP _0x2000089
000626 85ad      	LDD  R26,Y+13
000627 23aa      	TST  R26
000628 f442      	BRPL _0x200008A
000629 940e 0bb8 	CALL SUBOPT_0x31
00062b 940e 0ddb 	CALL __ANEGD1
00062d 940e 0bb1 	CALL SUBOPT_0x2F
00062f e2ed      	LDI  R30,LOW(45)
000630 8bed      	STD  Y+21,R30
                 _0x200008A:
000631 89ed      	LDD  R30,Y+21
000632 30e0      	CPI  R30,0
000633 f019      	BREQ _0x200008B
000634 5f1f      	SUBI R17,-LOW(1)
000635 5f4f      	SUBI R20,-LOW(1)
000636 c001      	RJMP _0x200008C
                 _0x200008B:
000637 7f0b      	ANDI R16,LOW(251)
                 _0x200008C:
                 _0x2000089:
000638 2f34      	MOV  R19,R20
                 _0x2000075:
000639 fd00      	SBRC R16,0
00063a c014      	RJMP _0x200008D
                 _0x200008E:
00063b 1715      	CP   R17,R21
00063c f410      	BRSH _0x2000091
00063d 1735      	CP   R19,R21
00063e f008      	BRLO _0x2000092
                 _0x2000091:
00063f c00f      	RJMP _0x2000090
                 _0x2000092:
000640 ff07      	SBRS R16,7
000641 c008      	RJMP _0x2000093
000642 ff02      	SBRS R16,2
000643 c004      	RJMP _0x2000094
000644 7f0b      	ANDI R16,LOW(251)
000645 892d      	LDD  R18,Y+21
000646 5011      	SUBI R17,LOW(1)
000647 c001      	RJMP _0x2000095
                 _0x2000094:
000648 e320      	LDI  R18,LOW(48)
                 _0x2000095:
000649 c001      	RJMP _0x2000096
                 _0x2000093:
00064a e220      	LDI  R18,LOW(32)
                 _0x2000096:
00064b 940e 0b8f 	CALL SUBOPT_0x2A
00064d 5051      	SUBI R21,LOW(1)
00064e cfec      	RJMP _0x200008E
                 _0x2000090:
                 _0x200008D:
                 _0x2000097:
00064f 1714      	CP   R17,R20
000650 f490      	BRSH _0x2000099
000651 6100      	ORI  R16,LOW(16)
000652 ff02      	SBRS R16,2
000653 c006      	RJMP _0x200009A
000654 940e 0bcf 	CALL SUBOPT_0x35
000656 f009      	BREQ _0x200009B
000657 5051      	SUBI R21,LOW(1)
                 _0x200009B:
000658 5011      	SUBI R17,LOW(1)
000659 5041      	SUBI R20,LOW(1)
                 _0x200009A:
00065a e3e0      	LDI  R30,LOW(48)
00065b 93ea      	ST   -Y,R30
00065c 940e 0ba4 	CALL SUBOPT_0x2D
00065e 3050      	CPI  R21,0
00065f f009      	BREQ _0x200009C
000660 5051      	SUBI R21,LOW(1)
                 _0x200009C:
000661 5041      	SUBI R20,LOW(1)
000662 cfec      	RJMP _0x2000097
                 _0x2000099:
000663 2f31      	MOV  R19,R17
000664 89ec      	LDD  R30,Y+20
000665 30e0      	CPI  R30,0
000666 f4b9      	BRNE _0x200009D
                 _0x200009E:
000667 3030      	CPI  R19,0
000668 f0a1      	BREQ _0x20000A0
000669 ff03      	SBRS R16,3
00066a c006      	RJMP _0x20000A1
00066b 85ee      	LDD  R30,Y+14
00066c 85ff      	LDD  R31,Y+14+1
00066d 9125      	LPM  R18,Z+
00066e 87ee      	STD  Y+14,R30
00066f 87ff      	STD  Y+14+1,R31
000670 c005      	RJMP _0x20000A2
                 _0x20000A1:
000671 85ae      	LDD  R26,Y+14
000672 85bf      	LDD  R27,Y+14+1
000673 912d      	LD   R18,X+
000674 87ae      	STD  Y+14,R26
000675 87bf      	STD  Y+14+1,R27
                 _0x20000A2:
000676 940e 0b8f 	CALL SUBOPT_0x2A
000678 3050      	CPI  R21,0
000679 f009      	BREQ _0x20000A3
00067a 5051      	SUBI R21,LOW(1)
                 _0x20000A3:
00067b 5031      	SUBI R19,LOW(1)
00067c cfea      	RJMP _0x200009E
                 _0x20000A0:
00067d c051      	RJMP _0x20000A4
                 _0x200009D:
                 _0x20000A6:
00067e 940e 0be1 	CALL SUBOPT_0x36
000680 940e 0e19 	CALL __DIVD21U
000682 2f2e      	MOV  R18,R30
000683 302a      	CPI  R18,10
000684 f030      	BRLO _0x20000A8
000685 ff03      	SBRS R16,3
000686 c002      	RJMP _0x20000A9
000687 5c29      	SUBI R18,-LOW(55)
000688 c001      	RJMP _0x20000AA
                 _0x20000A9:
000689 5a29      	SUBI R18,-LOW(87)
                 _0x20000AA:
00068a c001      	RJMP _0x20000AB
                 _0x20000A8:
00068b 5d20      	SUBI R18,-LOW(48)
                 _0x20000AB:
00068c fd04      	SBRC R16,4
00068d c021      	RJMP _0x20000AD
00068e 3321      	CPI  R18,49
00068f f460      	BRSH _0x20000AF
                +
000690 89a8     +LDD R26 , Y + 16
000691 89b9     +LDD R27 , Y + 16 + 1
000692 898a     +LDD R24 , Y + 16 + 2
000693 899b     +LDD R25 , Y + 16 + 3
                 	__GETD2S 16
                +
000694 30a1     +CPI R26 , LOW ( 0x1 )
000695 e0e0     +LDI R30 , HIGH ( 0x1 )
000696 07be     +CPC R27 , R30
000697 e0e0     +LDI R30 , BYTE3 ( 0x1 )
000698 078e     +CPC R24 , R30
000699 e0e0     +LDI R30 , BYTE4 ( 0x1 )
00069a 079e     +CPC R25 , R30
                 	__CPD2N 0x1
00069b f409      	BRNE _0x20000AE
                 _0x20000AF:
00069c c00b      	RJMP _0x20000B1
                 _0x20000AE:
00069d 1743      	CP   R20,R19
00069e f440      	BRSH _0x200011C
00069f 1753      	CP   R21,R19
0006a0 f010      	BRLO _0x20000B4
0006a1 ff00      	SBRS R16,0
0006a2 c001      	RJMP _0x20000B5
                 _0x20000B4:
0006a3 c010      	RJMP _0x20000B3
                 _0x20000B5:
0006a4 e220      	LDI  R18,LOW(32)
0006a5 ff07      	SBRS R16,7
0006a6 c008      	RJMP _0x20000B6
                 _0x200011C:
0006a7 e320      	LDI  R18,LOW(48)
                 _0x20000B1:
0006a8 6100      	ORI  R16,LOW(16)
0006a9 ff02      	SBRS R16,2
0006aa c004      	RJMP _0x20000B7
0006ab 940e 0bcf 	CALL SUBOPT_0x35
0006ad f009      	BREQ _0x20000B8
0006ae 5051      	SUBI R21,LOW(1)
                 _0x20000B8:
                 _0x20000B7:
                 _0x20000B6:
                 _0x20000AD:
0006af 940e 0b8f 	CALL SUBOPT_0x2A
0006b1 3050      	CPI  R21,0
0006b2 f009      	BREQ _0x20000B9
0006b3 5051      	SUBI R21,LOW(1)
                 _0x20000B9:
                 _0x20000B3:
0006b4 5031      	SUBI R19,LOW(1)
0006b5 940e 0be1 	CALL SUBOPT_0x36
0006b7 940e 0e58 	CALL __MODD21U
0006b9 940e 0bb1 	CALL SUBOPT_0x2F
0006bb 89ec      	LDD  R30,Y+20
                +
0006bc 89a8     +LDD R26 , Y + 16
0006bd 89b9     +LDD R27 , Y + 16 + 1
0006be 898a     +LDD R24 , Y + 16 + 2
0006bf 899b     +LDD R25 , Y + 16 + 3
                 	__GETD2S 16
0006c0 27ff      	CLR  R31
0006c1 2766      	CLR  R22
0006c2 2777      	CLR  R23
0006c3 940e 0e19 	CALL __DIVD21U
0006c5 940e 0bca 	CALL SUBOPT_0x34
                +
0006c7 89e8     +LDD R30 , Y + 16
0006c8 89f9     +LDD R31 , Y + 16 + 1
0006c9 896a     +LDD R22 , Y + 16 + 2
0006ca 897b     +LDD R23 , Y + 16 + 3
                 	__GETD1S 16
0006cb 940e 0ea5 	CALL __CPD10
0006cd f009      	BREQ _0x20000A7
0006ce cfaf      	RJMP _0x20000A6
                 _0x20000A7:
                 _0x20000A4:
0006cf ff00      	SBRS R16,0
0006d0 c008      	RJMP _0x20000BA
                 _0x20000BB:
0006d1 3050      	CPI  R21,0
0006d2 f031      	BREQ _0x20000BD
0006d3 5051      	SUBI R21,LOW(1)
0006d4 e2e0      	LDI  R30,LOW(32)
0006d5 93ea      	ST   -Y,R30
0006d6 940e 0ba4 	CALL SUBOPT_0x2D
0006d8 cff8      	RJMP _0x20000BB
                 _0x20000BD:
                 _0x20000BA:
                 _0x20000BE:
                 _0x200005A:
                 _0x200011A:
0006d9 e010      	LDI  R17,LOW(0)
                 _0x200003B:
0006da ce0c      	RJMP _0x2000036
                 _0x2000038:
0006db 81ae      	LDD  R26,Y+6
0006dc 81bf      	LDD  R27,Y+6+1
0006dd 940e 0e68 	CALL __GETW1P
0006df 940e 0eb0 	CALL __LOADLOCR6
0006e1 96ef      	ADIW R28,63
0006e2 966f      	ADIW R28,31
0006e3 9508      	RET
                 ; .FEND
                 _sprintf:
                 ; .FSTART _sprintf
0006e4 92ff      	PUSH R15
0006e5 2ef8      	MOV  R15,R24
0006e6 9726      	SBIW R28,6
0006e7 940e 0eab 	CALL __SAVELOCR4
0006e9 940e 0bea 	CALL SUBOPT_0x37
0006eb 9730      	SBIW R30,0
0006ec f419      	BRNE _0x20000BF
0006ed efef      	LDI  R30,LOW(65535)
0006ee efff      	LDI  R31,HIGH(65535)
0006ef c023      	RJMP _0x20C0006
                 _0x20000BF:
0006f0 01de      	MOVW R26,R28
0006f1 9616      	ADIW R26,6
0006f2 940e 0dd3 	CALL __ADDW2R15
0006f4 018d      	MOVW R16,R26
0006f5 940e 0bea 	CALL SUBOPT_0x37
0006f7 83ee      	STD  Y+6,R30
0006f8 83ff      	STD  Y+6+1,R31
0006f9 e0e0      	LDI  R30,LOW(0)
0006fa 87e8      	STD  Y+8,R30
0006fb 87e9      	STD  Y+8+1,R30
0006fc 01de      	MOVW R26,R28
0006fd 961a      	ADIW R26,10
0006fe 940e 0dd3 	CALL __ADDW2R15
000700 940e 0e68 	CALL __GETW1P
000702 93fa      	ST   -Y,R31
000703 93ea      	ST   -Y,R30
000704 931a      	ST   -Y,R17
000705 930a      	ST   -Y,R16
000706 ebee      	LDI  R30,LOW(_put_buff_G100)
000707 e0f3      	LDI  R31,HIGH(_put_buff_G100)
000708 93fa      	ST   -Y,R31
000709 93ea      	ST   -Y,R30
00070a 01de      	MOVW R26,R28
00070b 961a      	ADIW R26,10
00070c ddbd      	RCALL __print_G100
00070d 019f      	MOVW R18,R30
00070e 81ae      	LDD  R26,Y+6
00070f 81bf      	LDD  R27,Y+6+1
000710 e0e0      	LDI  R30,LOW(0)
000711 93ec      	ST   X,R30
000712 01f9      	MOVW R30,R18
                 _0x20C0006:
000713 940e 0eb2 	CALL __LOADLOCR4
000715 962a      	ADIW R28,10
000716 90ff      	POP  R15
000717 9508      	RET
                 ; .FEND
                 	#ifndef __SLEEP_DEFINED__
                 	#endif
                 
                 	.DSEG
                 
                 	.CSEG
                 _twi_master_init:
                 ; .FSTART _twi_master_init
000718 93ba      	ST   -Y,R27
000719 93aa      	ST   -Y,R26
00071a 931a      	ST   -Y,R17
00071b 9af1      	SBI  0x1E,1
00071c e0e7      	LDI  R30,LOW(7)
00071d 93e0 031b 	STS  _twi_result,R30
00071f e0e0      	LDI  R30,LOW(0)
000720 93e0 0371 	STS  _twi_slave_rx_handler_G101,R30
000722 93e0 0372 	STS  _twi_slave_rx_handler_G101+1,R30
000724 93e0 0373 	STS  _twi_slave_tx_handler_G101,R30
000726 93e0 0374 	STS  _twi_slave_tx_handler_G101+1,R30
000728 9a44      	SBI  0x8,4
000729 9a45      	SBI  0x8,5
00072a 93e0 00bc 	STS  188,R30
00072c 91e0 00b9 	LDS  R30,185
00072e 7fec      	ANDI R30,LOW(0xFC)
00072f 93e0 00b9 	STS  185,R30
000731 81e9      	LDD  R30,Y+1
000732 81fa      	LDD  R31,Y+1+1
000733 eaa0      	LDI  R26,LOW(4000)
000734 e0bf      	LDI  R27,HIGH(4000)
000735 940e 0e06 	CALL __DIVW21U
000737 2f1e      	MOV  R17,R30
000738 3018      	CPI  R17,8
000739 f008      	BRLO _0x2020006
00073a 5018      	SUBI R17,LOW(8)
                 _0x2020006:
00073b 9310 00b8 	STS  184,R17
00073d 91e0 00bc 	LDS  R30,188
00073f 78e0      	ANDI R30,LOW(0x80)
000740 64e5      	ORI  R30,LOW(0x45)
000741 93e0 00bc 	STS  188,R30
000743 8118      	LDD  R17,Y+0
000744 9623      	ADIW R28,3
000745 9508      	RET
                 ; .FEND
                 _twi_master_trans:
                 ; .FSTART _twi_master_trans
000746 93aa      	ST   -Y,R26
000747 9724      	SBIW R28,4
000748 9bf1      	SBIS 0x1E,1
000749 c062      	RJMP _0x2020007
00074a 85ea      	LDD  R30,Y+10
00074b 0fee      	LSL  R30
00074c 93e0 0369 	STS  _slave_address_G101,R30
00074e 85e8      	LDD  R30,Y+8
00074f 85f9      	LDD  R31,Y+8+1
000750 93e0 036a 	STS  _twi_tx_buffer_G101,R30
000752 93f0 036b 	STS  _twi_tx_buffer_G101+1,R31
000754 e0e0      	LDI  R30,LOW(0)
000755 93e0 0319 	STS  _twi_tx_index,R30
000757 81ef      	LDD  R30,Y+7
000758 93e0 036c 	STS  _bytes_to_tx_G101,R30
00075a 81ed      	LDD  R30,Y+5
00075b 81fe      	LDD  R31,Y+5+1
00075c 93e0 036d 	STS  _twi_rx_buffer_G101,R30
00075e 93f0 036e 	STS  _twi_rx_buffer_G101+1,R31
000760 e0e0      	LDI  R30,LOW(0)
000761 93e0 031a 	STS  _twi_rx_index,R30
000763 81ec      	LDD  R30,Y+4
000764 93e0 036f 	STS  _bytes_to_rx_G101,R30
000766 e0e6      	LDI  R30,LOW(6)
000767 93e0 031b 	STS  _twi_result,R30
000769 9478      	sei
00076a 81ef      	LDD  R30,Y+7
00076b 30e0      	CPI  R30,0
00076c f079      	BREQ _0x2020008
00076d 85e8      	LDD  R30,Y+8
00076e 85f9      	LDD  R31,Y+8+1
00076f 9730      	SBIW R30,0
000770 f1d9      	BREQ _0x20C0005
000771 81ec      	LDD  R30,Y+4
000772 30e0      	CPI  R30,0
000773 f021      	BREQ _0x202000B
000774 81ad      	LDD  R26,Y+5
000775 81be      	LDD  R27,Y+5+1
000776 9710      	SBIW R26,0
000777 f009      	BREQ _0x202000C
                 _0x202000B:
000778 c001      	RJMP _0x202000A
                 _0x202000C:
000779 c032      	RJMP _0x20C0005
                 _0x202000A:
00077a 9af0      	SBI  0x1E,0
00077b c00d      	RJMP _0x202000F
                 _0x2020008:
00077c 81ec      	LDD  R30,Y+4
00077d 30e0      	CPI  R30,0
00077e f139      	BREQ _0x2020010
00077f 81ed      	LDD  R30,Y+5
000780 81fe      	LDD  R31,Y+5+1
000781 9730      	SBIW R30,0
000782 f149      	BREQ _0x20C0005
000783 91e0 0369 	LDS  R30,_slave_address_G101
000785 60e1      	ORI  R30,1
000786 93e0 0369 	STS  _slave_address_G101,R30
000788 98f0      	CBI  0x1E,0
                 _0x202000F:
000789 98f1      	CBI  0x1E,1
00078a 91e0 00bc 	LDS  R30,188
00078c 70ef      	ANDI R30,LOW(0xF)
00078d 6ae0      	ORI  R30,LOW(0xA0)
00078e 93e0 00bc 	STS  188,R30
                +
000790 e2e0     +LDI R30 , LOW ( 0x7A120 )
000791 eaf1     +LDI R31 , HIGH ( 0x7A120 )
000792 e067     +LDI R22 , BYTE3 ( 0x7A120 )
000793 e070     +LDI R23 , BYTE4 ( 0x7A120 )
                 	__GETD1N 0x7A120
000794 940e 0bf1 	CALL SUBOPT_0x38
                 _0x2020016:
000796 99f1      	SBIC 0x1E,1
000797 c00e      	RJMP _0x2020018
000798 940e 0bf4 	CALL SUBOPT_0x39
00079a 9731      	SBIW R30,1
00079b 4060      	SBCI R22,0
00079c 4070      	SBCI R23,0
00079d 940e 0bf1 	CALL SUBOPT_0x38
00079f f429      	BRNE _0x2020019
0007a0 e0e5      	LDI  R30,LOW(5)
0007a1 93e0 031b 	STS  _twi_result,R30
0007a3 9af1      	SBI  0x1E,1
0007a4 c007      	RJMP _0x20C0005
                 _0x2020019:
0007a5 cff0      	RJMP _0x2020016
                 _0x2020018:
                 _0x2020010:
0007a6 91a0 031b 	LDS  R26,_twi_result
0007a8 e0e0      	LDI  R30,LOW(0)
0007a9 940e 0dee 	CALL __EQB12
0007ab c001      	RJMP _0x20C0004
                 _0x2020007:
                 _0x20C0005:
0007ac e0e0      	LDI  R30,LOW(0)
                 _0x20C0004:
0007ad 962b      	ADIW R28,11
0007ae 9508      	RET
                 ; .FEND
                 _twi_int_handler:
                 ; .FSTART _twi_int_handler
0007af 920a      	ST   -Y,R0
0007b0 921a      	ST   -Y,R1
0007b1 92fa      	ST   -Y,R15
0007b2 936a      	ST   -Y,R22
0007b3 937a      	ST   -Y,R23
0007b4 938a      	ST   -Y,R24
0007b5 939a      	ST   -Y,R25
0007b6 93aa      	ST   -Y,R26
0007b7 93ba      	ST   -Y,R27
0007b8 93ea      	ST   -Y,R30
0007b9 93fa      	ST   -Y,R31
0007ba b7ef      	IN   R30,SREG
0007bb 93ea      	ST   -Y,R30
0007bc 940e 0ea9 	CALL __SAVELOCR6
0007be 9110 031a 	LDS  R17,_twi_rx_index
0007c0 9100 0319 	LDS  R16,_twi_tx_index
0007c2 9130 036c 	LDS  R19,_bytes_to_tx_G101
0007c4 9120 031b 	LDS  R18,_twi_result
0007c6 2fe1      	MOV  R30,R17
0007c7 91a0 036d 	LDS  R26,_twi_rx_buffer_G101
0007c9 91b0 036e 	LDS  R27,_twi_rx_buffer_G101+1
0007cb e0f0      	LDI  R31,0
0007cc 0fea      	ADD  R30,R26
0007cd 1ffb      	ADC  R31,R27
0007ce 01af      	MOVW R20,R30
0007cf 91e0 00b9 	LDS  R30,185
0007d1 7fe8      	ANDI R30,LOW(0xF8)
0007d2 30e8      	CPI  R30,LOW(0x8)
0007d3 f411      	BRNE _0x2020023
0007d4 e020      	LDI  R18,LOW(0)
0007d5 c002      	RJMP _0x2020024
                 _0x2020023:
0007d6 31e0      	CPI  R30,LOW(0x10)
0007d7 f419      	BRNE _0x2020025
                 _0x2020024:
0007d8 91e0 0369 	LDS  R30,_slave_address_G101
0007da c010      	RJMP _0x2020080
                 _0x2020025:
0007db 31e8      	CPI  R30,LOW(0x18)
0007dc f011      	BREQ _0x2020029
0007dd 32e8      	CPI  R30,LOW(0x28)
0007de f541      	BRNE _0x202002A
                 _0x2020029:
0007df 1703      	CP   R16,R19
0007e0 f498      	BRSH _0x202002B
0007e1 2fe0      	MOV  R30,R16
0007e2 5f0f      	SUBI R16,-1
0007e3 91a0 036a 	LDS  R26,_twi_tx_buffer_G101
0007e5 91b0 036b 	LDS  R27,_twi_tx_buffer_G101+1
0007e7 e0f0      	LDI  R31,0
0007e8 0fae      	ADD  R26,R30
0007e9 1fbf      	ADC  R27,R31
0007ea 91ec      	LD   R30,X
                 _0x2020080:
0007eb 93e0 00bb 	STS  187,R30
0007ed 91e0 00bc 	LDS  R30,188
0007ef 70ef      	ANDI R30,LOW(0xF)
0007f0 68e0      	ORI  R30,0x80
0007f1 93e0 00bc 	STS  188,R30
0007f3 c012      	RJMP _0x202002C
                 _0x202002B:
0007f4 91e0 036f 	LDS  R30,_bytes_to_rx_G101
0007f6 171e      	CP   R17,R30
0007f7 f468      	BRSH _0x202002D
0007f8 91e0 0369 	LDS  R30,_slave_address_G101
0007fa 60e1      	ORI  R30,1
0007fb 93e0 0369 	STS  _slave_address_G101,R30
0007fd 98f0      	CBI  0x1E,0
0007fe 91e0 00bc 	LDS  R30,188
000800 70ef      	ANDI R30,LOW(0xF)
000801 6ae0      	ORI  R30,LOW(0xA0)
000802 93e0 00bc 	STS  188,R30
000804 c10d      	RJMP _0x2020022
                 _0x202002D:
000805 c038      	RJMP _0x2020030
                 _0x202002C:
000806 c10b      	RJMP _0x2020022
                 _0x202002A:
000807 35e0      	CPI  R30,LOW(0x50)
000808 f431      	BRNE _0x2020031
000809 91e0 00bb 	LDS  R30,187
00080b 01da      	MOVW R26,R20
00080c 93ec      	ST   X,R30
00080d 5f1f      	SUBI R17,-LOW(1)
00080e c002      	RJMP _0x2020032
                 _0x2020031:
00080f 34e0      	CPI  R30,LOW(0x40)
000810 f489      	BRNE _0x2020033
                 _0x2020032:
000811 91e0 036f 	LDS  R30,_bytes_to_rx_G101
000813 50e1      	SUBI R30,LOW(1)
000814 171e      	CP   R17,R30
000815 f028      	BRLO _0x2020034
000816 91e0 00bc 	LDS  R30,188
000818 70ef      	ANDI R30,LOW(0xF)
000819 68e0      	ORI  R30,0x80
00081a c004      	RJMP _0x2020081
                 _0x2020034:
00081b 91e0 00bc 	LDS  R30,188
00081d 70ef      	ANDI R30,LOW(0xF)
00081e 6ce0      	ORI  R30,LOW(0xC0)
                 _0x2020081:
00081f 93e0 00bc 	STS  188,R30
000821 c0f0      	RJMP _0x2020022
                 _0x2020033:
000822 35e8      	CPI  R30,LOW(0x58)
000823 f431      	BRNE _0x2020036
000824 91e0 00bb 	LDS  R30,187
000826 01da      	MOVW R26,R20
000827 93ec      	ST   X,R30
000828 5f1f      	SUBI R17,-LOW(1)
000829 c002      	RJMP _0x2020037
                 _0x2020036:
00082a 32e0      	CPI  R30,LOW(0x20)
00082b f409      	BRNE _0x2020038
                 _0x2020037:
00082c c002      	RJMP _0x2020039
                 _0x2020038:
00082d 33e0      	CPI  R30,LOW(0x30)
00082e f409      	BRNE _0x202003A
                 _0x2020039:
00082f c002      	RJMP _0x202003B
                 _0x202003A:
000830 34e8      	CPI  R30,LOW(0x48)
000831 f469      	BRNE _0x202003C
                 _0x202003B:
000832 3020      	CPI  R18,0
000833 f451      	BRNE _0x202003D
000834 9bf0      	SBIS 0x1E,0
000835 c003      	RJMP _0x202003E
000836 1703      	CP   R16,R19
000837 f028      	BRLO _0x2020040
000838 c005      	RJMP _0x2020041
                 _0x202003E:
000839 91e0 036f 	LDS  R30,_bytes_to_rx_G101
00083b 171e      	CP   R17,R30
00083c f408      	BRSH _0x2020042
                 _0x2020040:
00083d e024      	LDI  R18,LOW(4)
                 _0x2020042:
                 _0x2020041:
                 _0x202003D:
                 _0x2020030:
00083e c0cc      	RJMP _0x2020082
                 _0x202003C:
00083f 33e8      	CPI  R30,LOW(0x38)
000840 f431      	BRNE _0x2020045
000841 e022      	LDI  R18,LOW(2)
000842 91e0 00bc 	LDS  R30,188
000844 70ef      	ANDI R30,LOW(0xF)
000845 68e0      	ORI  R30,0x80
000846 c0c8      	RJMP _0x2020083
                 _0x2020045:
000847 36e8      	CPI  R30,LOW(0x68)
000848 f011      	BREQ _0x2020048
000849 37e8      	CPI  R30,LOW(0x78)
00084a f411      	BRNE _0x2020049
                 _0x2020048:
00084b e022      	LDI  R18,LOW(2)
00084c c005      	RJMP _0x202004A
                 _0x2020049:
00084d 36e0      	CPI  R30,LOW(0x60)
00084e f011      	BREQ _0x202004D
00084f 37e0      	CPI  R30,LOW(0x70)
000850 f4a1      	BRNE _0x202004E
                 _0x202004D:
000851 e020      	LDI  R18,LOW(0)
                 _0x202004A:
000852 e010      	LDI  R17,LOW(0)
000853 98f0      	CBI  0x1E,0
000854 91e0 0370 	LDS  R30,_twi_rx_buffer_size_G101
000856 30e0      	CPI  R30,0
000857 f431      	BRNE _0x2020051
000858 e021      	LDI  R18,LOW(1)
000859 91e0 00bc 	LDS  R30,188
00085b 70ef      	ANDI R30,LOW(0xF)
00085c 68e0      	ORI  R30,0x80
00085d c004      	RJMP _0x2020084
                 _0x2020051:
00085e 91e0 00bc 	LDS  R30,188
000860 70ef      	ANDI R30,LOW(0xF)
000861 6ce0      	ORI  R30,LOW(0xC0)
                 _0x2020084:
000862 93e0 00bc 	STS  188,R30
000864 c0ad      	RJMP _0x2020022
                 _0x202004E:
000865 38e0      	CPI  R30,LOW(0x80)
000866 f011      	BREQ _0x2020054
000867 39e0      	CPI  R30,LOW(0x90)
000868 f539      	BRNE _0x2020055
                 _0x2020054:
000869 9bf0      	SBIS 0x1E,0
00086a c002      	RJMP _0x2020056
00086b e021      	LDI  R18,LOW(1)
00086c c09e      	RJMP _0x2020057
                 _0x2020056:
00086d 91e0 00bb 	LDS  R30,187
00086f 01da      	MOVW R26,R20
000870 93ec      	ST   X,R30
000871 5f1f      	SUBI R17,-LOW(1)
000872 91e0 0370 	LDS  R30,_twi_rx_buffer_size_G101
000874 171e      	CP   R17,R30
000875 f4c0      	BRSH _0x2020058
000876 91e0 0371 	LDS  R30,_twi_slave_rx_handler_G101
000878 91f0 0372 	LDS  R31,_twi_slave_rx_handler_G101+1
00087a 9730      	SBIW R30,0
00087b f411      	BRNE _0x2020059
00087c e026      	LDI  R18,LOW(6)
00087d c08d      	RJMP _0x2020057
                 _0x2020059:
00087e e0a0      	LDI  R26,LOW(0)
                +
00087f 91e0 0371+LDS R30 , _twi_slave_rx_handler_G101 + ( 0 )
000881 91f0 0372+LDS R31 , _twi_slave_rx_handler_G101 + ( 0 ) + 1
000883 9509     +ICALL
                 	__CALL1MN _twi_slave_rx_handler_G101,0
000884 30e0      	CPI  R30,0
000885 f039      	BREQ _0x202005A
000886 91e0 00bc 	LDS  R30,188
000888 70ef      	ANDI R30,LOW(0xF)
000889 6ce0      	ORI  R30,LOW(0xC0)
00088a 93e0 00bc 	STS  188,R30
00088c c085      	RJMP _0x2020022
                 _0x202005A:
00088d c001      	RJMP _0x202005B
                 _0x2020058:
00088e 9af0      	SBI  0x1E,0
                 _0x202005B:
00088f c002      	RJMP _0x202005E
                 _0x2020055:
000890 38e8      	CPI  R30,LOW(0x88)
000891 f409      	BRNE _0x202005F
                 _0x202005E:
000892 c002      	RJMP _0x2020060
                 _0x202005F:
000893 39e8      	CPI  R30,LOW(0x98)
000894 f439      	BRNE _0x2020061
                 _0x2020060:
000895 91e0 00bc 	LDS  R30,188
000897 70ef      	ANDI R30,LOW(0xF)
000898 68e0      	ORI  R30,0x80
000899 93e0 00bc 	STS  188,R30
00089b c076      	RJMP _0x2020022
                 _0x2020061:
00089c 3ae0      	CPI  R30,LOW(0xA0)
00089d f4b1      	BRNE _0x2020062
00089e 91e0 00bc 	LDS  R30,188
0008a0 70ef      	ANDI R30,LOW(0xF)
0008a1 6ce0      	ORI  R30,LOW(0xC0)
0008a2 93e0 00bc 	STS  188,R30
0008a4 9af1      	SBI  0x1E,1
0008a5 91e0 0371 	LDS  R30,_twi_slave_rx_handler_G101
0008a7 91f0 0372 	LDS  R31,_twi_slave_rx_handler_G101+1
0008a9 9730      	SBIW R30,0
0008aa f039      	BREQ _0x2020065
0008ab e0a1      	LDI  R26,LOW(1)
                +
0008ac 91e0 0371+LDS R30 , _twi_slave_rx_handler_G101 + ( 0 )
0008ae 91f0 0372+LDS R31 , _twi_slave_rx_handler_G101 + ( 0 ) + 1
0008b0 9509     +ICALL
                 	__CALL1MN _twi_slave_rx_handler_G101,0
0008b1 c001      	RJMP _0x2020066
                 _0x2020065:
0008b2 e026      	LDI  R18,LOW(6)
                 _0x2020066:
0008b3 c05e      	RJMP _0x2020022
                 _0x2020062:
0008b4 3be0      	CPI  R30,LOW(0xB0)
0008b5 f411      	BRNE _0x2020067
0008b6 e022      	LDI  R18,LOW(2)
0008b7 c002      	RJMP _0x2020068
                 _0x2020067:
0008b8 3ae8      	CPI  R30,LOW(0xA8)
0008b9 f4b1      	BRNE _0x2020069
                 _0x2020068:
0008ba 91e0 0373 	LDS  R30,_twi_slave_tx_handler_G101
0008bc 91f0 0374 	LDS  R31,_twi_slave_tx_handler_G101+1
0008be 9730      	SBIW R30,0
0008bf f059      	BREQ _0x202006A
0008c0 e0a0      	LDI  R26,LOW(0)
                +
0008c1 91e0 0373+LDS R30 , _twi_slave_tx_handler_G101 + ( 0 )
0008c3 91f0 0374+LDS R31 , _twi_slave_tx_handler_G101 + ( 0 ) + 1
0008c5 9509     +ICALL
                 	__CALL1MN _twi_slave_tx_handler_G101,0
0008c6 2f3e      	MOV  R19,R30
0008c7 30e0      	CPI  R30,0
0008c8 f011      	BREQ _0x202006C
0008c9 e020      	LDI  R18,LOW(0)
0008ca c002      	RJMP _0x202006D
                 _0x202006A:
                 _0x202006C:
0008cb e026      	LDI  R18,LOW(6)
0008cc c03e      	RJMP _0x2020057
                 _0x202006D:
0008cd e000      	LDI  R16,LOW(0)
0008ce 98f0      	CBI  0x1E,0
0008cf c002      	RJMP _0x2020070
                 _0x2020069:
0008d0 3be8      	CPI  R30,LOW(0xB8)
0008d1 f4f9      	BRNE _0x2020071
                 _0x2020070:
0008d2 9bf0      	SBIS 0x1E,0
0008d3 c002      	RJMP _0x2020072
0008d4 e021      	LDI  R18,LOW(1)
0008d5 c035      	RJMP _0x2020057
                 _0x2020072:
0008d6 2fe0      	MOV  R30,R16
0008d7 5f0f      	SUBI R16,-1
0008d8 91a0 036a 	LDS  R26,_twi_tx_buffer_G101
0008da 91b0 036b 	LDS  R27,_twi_tx_buffer_G101+1
0008dc e0f0      	LDI  R31,0
0008dd 0fae      	ADD  R26,R30
0008de 1fbf      	ADC  R27,R31
0008df 91ec      	LD   R30,X
0008e0 93e0 00bb 	STS  187,R30
0008e2 1703      	CP   R16,R19
0008e3 f428      	BRSH _0x2020073
0008e4 91e0 00bc 	LDS  R30,188
0008e6 70ef      	ANDI R30,LOW(0xF)
0008e7 6ce0      	ORI  R30,LOW(0xC0)
0008e8 c005      	RJMP _0x2020085
                 _0x2020073:
0008e9 9af0      	SBI  0x1E,0
0008ea 91e0 00bc 	LDS  R30,188
0008ec 70ef      	ANDI R30,LOW(0xF)
0008ed 68e0      	ORI  R30,0x80
                 _0x2020085:
0008ee 93e0 00bc 	STS  188,R30
0008f0 c021      	RJMP _0x2020022
                 _0x2020071:
0008f1 3ce0      	CPI  R30,LOW(0xC0)
0008f2 f011      	BREQ _0x2020078
0008f3 3ce8      	CPI  R30,LOW(0xC8)
0008f4 f499      	BRNE _0x2020079
                 _0x2020078:
0008f5 91e0 00bc 	LDS  R30,188
0008f7 70ef      	ANDI R30,LOW(0xF)
0008f8 6ce0      	ORI  R30,LOW(0xC0)
0008f9 93e0 00bc 	STS  188,R30
0008fb 91e0 0373 	LDS  R30,_twi_slave_tx_handler_G101
0008fd 91f0 0374 	LDS  R31,_twi_slave_tx_handler_G101+1
0008ff 9730      	SBIW R30,0
000900 f031      	BREQ _0x202007A
000901 e0a1      	LDI  R26,LOW(1)
                +
000902 91e0 0373+LDS R30 , _twi_slave_tx_handler_G101 + ( 0 )
000904 91f0 0374+LDS R31 , _twi_slave_tx_handler_G101 + ( 0 ) + 1
000906 9509     +ICALL
                 	__CALL1MN _twi_slave_tx_handler_G101,0
                 _0x202007A:
000907 c009      	RJMP _0x2020043
                 _0x2020079:
000908 30e0      	CPI  R30,0
000909 f441      	BRNE _0x2020022
00090a e023      	LDI  R18,LOW(3)
                 _0x2020057:
                 _0x2020082:
00090b 91e0 00bc 	LDS  R30,188
00090d 70ef      	ANDI R30,LOW(0xF)
00090e 6de0      	ORI  R30,LOW(0xD0)
                 _0x2020083:
00090f 93e0 00bc 	STS  188,R30
                 _0x2020043:
000911 9af1      	SBI  0x1E,1
                 _0x2020022:
000912 9310 031a 	STS  _twi_rx_index,R17
000914 9300 0319 	STS  _twi_tx_index,R16
000916 9320 031b 	STS  _twi_result,R18
000918 9330 036c 	STS  _bytes_to_tx_G101,R19
00091a 940e 0eb0 	CALL __LOADLOCR6
00091c 9626      	ADIW R28,6
00091d 91e9      	LD   R30,Y+
00091e bfef      	OUT  SREG,R30
00091f 91f9      	LD   R31,Y+
000920 91e9      	LD   R30,Y+
000921 91b9      	LD   R27,Y+
000922 91a9      	LD   R26,Y+
000923 9199      	LD   R25,Y+
000924 9189      	LD   R24,Y+
000925 9179      	LD   R23,Y+
000926 9169      	LD   R22,Y+
000927 90f9      	LD   R15,Y+
000928 9019      	LD   R1,Y+
000929 9009      	LD   R0,Y+
00092a 9518      	RETI
                 ; .FEND
                 
                 	.CSEG
                 
                 	.CSEG
                 _strcpyf:
                 ; .FSTART _strcpyf
00092b 93ba      	ST   -Y,R27
00092c 93aa      	ST   -Y,R26
00092d 91e9          ld   r30,y+
00092e 91f9          ld   r31,y+
00092f 91a9          ld   r26,y+
000930 91b9          ld   r27,y+
000931 01cd          movw r24,r26
                 strcpyf0:
000932 9005      	lpm  r0,z+
000933 920d          st   x+,r0
000934 2000          tst  r0
000935 f7e1          brne strcpyf0
000936 01fc          movw r30,r24
000937 9508          ret
                 ; .FEND
                 _strlen:
                 ; .FSTART _strlen
000938 93ba      	ST   -Y,R27
000939 93aa      	ST   -Y,R26
00093a 91a9          ld   r26,y+
00093b 91b9          ld   r27,y+
00093c 27ee          clr  r30
00093d 27ff          clr  r31
                 strlen0:
00093e 916d          ld   r22,x+
00093f 2366          tst  r22
000940 f011          breq strlen1
000941 9631          adiw r30,1
000942 cffb          rjmp strlen0
                 strlen1:
000943 9508          ret
                 ; .FEND
                 _strlenf:
                 ; .FSTART _strlenf
000944 93ba      	ST   -Y,R27
000945 93aa      	ST   -Y,R26
000946 27aa          clr  r26
000947 27bb          clr  r27
000948 91e9          ld   r30,y+
000949 91f9          ld   r31,y+
                 strlenf0:
00094a 9005      	lpm  r0,z+
00094b 2000          tst  r0
00094c f011          breq strlenf1
00094d 9611          adiw r26,1
00094e cffb          rjmp strlenf0
                 strlenf1:
00094f 01fd          movw r30,r26
000950 9508          ret
                 ; .FEND
                 
                 	.CSEG
                 _ftrunc:
                 ; .FSTART _ftrunc
000951 940e 0e8b 	CALL __PUTPARD2
000953 817b         ldd  r23,y+3
000954 816a         ldd  r22,y+2
000955 81f9         ldd  r31,y+1
000956 81e8         ld   r30,y
000957 fb77         bst  r23,7
000958 0f77         lsl  r23
000959 fd67         sbrc r22,7
00095a 6071         sbr  r23,1
00095b 2f97         mov  r25,r23
00095c 579e         subi r25,0x7e
00095d f081         breq __ftrunc0
00095e f078         brcs __ftrunc0
00095f 3198         cpi  r25,24
000960 f490         brsh __ftrunc1
000961 27aa         clr  r26
000962 27bb         clr  r27
000963 2788         clr  r24
                 __ftrunc2:
000964 9408         sec
000965 9587         ror  r24
000966 95b7         ror  r27
000967 95a7         ror  r26
000968 959a         dec  r25
000969 f7d1         brne __ftrunc2
00096a 23ea         and  r30,r26
00096b 23fb         and  r31,r27
00096c 2368         and  r22,r24
00096d c005         rjmp __ftrunc1
                 __ftrunc0:
00096e 94e8         clt
00096f 2777         clr  r23
000970 27ee         clr  r30
000971 27ff         clr  r31
000972 2766         clr  r22
                 __ftrunc1:
000973 776f         cbr  r22,0x80
000974 9576         lsr  r23
000975 f408         brcc __ftrunc3
000976 6860         sbr  r22,0x80
                 __ftrunc3:
000977 f977         bld  r23,7
000978 91a9         ld   r26,y+
000979 91b9         ld   r27,y+
00097a 9189         ld   r24,y+
00097b 9199         ld   r25,y+
00097c 17ea         cp   r30,r26
00097d 07fb         cpc  r31,r27
00097e 0768         cpc  r22,r24
00097f 0779         cpc  r23,r25
000980 fb97         bst  r25,7
000981 9508         ret
                 ; .FEND
                 _floor:
                 ; .FSTART _floor
000982 940e 0e8b 	CALL __PUTPARD2
000984 940e 0e7c 	CALL __GETD2S0
000986 940e 0951 	CALL _ftrunc
000988 940e 0bf1 	CALL SUBOPT_0x38
00098a f419          brne __floor1
                 __floor0:
00098b 940e 0bf4 	CALL SUBOPT_0x39
00098d c009      	RJMP _0x20C0003
                 __floor1:
00098e f7e6          brtc __floor0
00098f 940e 0bf4 	CALL SUBOPT_0x39
                +
000991 e0a0     +LDI R26 , LOW ( 0x3F800000 )
000992 e0b0     +LDI R27 , HIGH ( 0x3F800000 )
000993 e880     +LDI R24 , BYTE3 ( 0x3F800000 )
000994 e39f     +LDI R25 , BYTE4 ( 0x3F800000 )
                 	__GETD2N 0x3F800000
000995 940e 0cc9 	CALL __SUBF12
                 _0x20C0003:
000997 9624      	ADIW R28,4
000998 9508      	RET
                 ; .FEND
                 
                 	.CSEG
                 _ftoa:
                 ; .FSTART _ftoa
000999 d192      	RCALL SUBOPT_0x1D
00099a e0e0      	LDI  R30,LOW(0)
00099b 83ea      	STD  Y+2,R30
00099c e3ef      	LDI  R30,LOW(63)
00099d 83eb      	STD  Y+3,R30
00099e 931a      	ST   -Y,R17
00099f 930a      	ST   -Y,R16
0009a0 85eb      	LDD  R30,Y+11
0009a1 85fc      	LDD  R31,Y+11+1
0009a2 3fef      	CPI  R30,LOW(0xFFFF)
0009a3 efaf      	LDI  R26,HIGH(0xFFFF)
0009a4 07fa      	CPC  R31,R26
0009a5 f431      	BRNE _0x20A000D
0009a6 d250      	RCALL SUBOPT_0x3A
                +
0009a7 e4a4     +LDI R26 , LOW ( 2 * _0x20A0000 + ( 0 ) )
0009a8 e0b1     +LDI R27 , HIGH ( 2 * _0x20A0000 + ( 0 ) )
                 	__POINTW2FN _0x20A0000,0
0009a9 940e 092b 	CALL _strcpyf
0009ab c08a      	RJMP _0x20C0002
                 _0x20A000D:
0009ac 3fef      	CPI  R30,LOW(0x7FFF)
0009ad e7af      	LDI  R26,HIGH(0x7FFF)
0009ae 07fa      	CPC  R31,R26
0009af f431      	BRNE _0x20A000C
0009b0 d246      	RCALL SUBOPT_0x3A
                +
0009b1 e4a5     +LDI R26 , LOW ( 2 * _0x20A0000 + ( 1 ) )
0009b2 e0b1     +LDI R27 , HIGH ( 2 * _0x20A0000 + ( 1 ) )
                 	__POINTW2FN _0x20A0000,1
0009b3 940e 092b 	CALL _strcpyf
0009b5 c080      	RJMP _0x20C0002
                 _0x20A000C:
0009b6 85ac      	LDD  R26,Y+12
0009b7 23aa      	TST  R26
0009b8 f452      	BRPL _0x20A000F
                +
0009b9 85e9     +LDD R30 , Y + 9
0009ba 85fa     +LDD R31 , Y + 9 + 1
0009bb 856b     +LDD R22 , Y + 9 + 2
0009bc 857c     +LDD R23 , Y + 9 + 3
                 	__GETD1S 9
0009bd 940e 0c2a 	CALL __ANEGF1
0009bf d23c      	RCALL SUBOPT_0x3B
0009c0 d240      	RCALL SUBOPT_0x3C
0009c1 e2ed      	LDI  R30,LOW(45)
0009c2 93ec      	ST   X,R30
                 _0x20A000F:
0009c3 85a8      	LDD  R26,Y+8
0009c4 30a7      	CPI  R26,LOW(0x7)
0009c5 f010      	BRLO _0x20A0010
0009c6 e0e6      	LDI  R30,LOW(6)
0009c7 87e8      	STD  Y+8,R30
                 _0x20A0010:
0009c8 8518      	LDD  R17,Y+8
                 _0x20A0011:
0009c9 2fe1      	MOV  R30,R17
0009ca 5011      	SUBI R17,1
0009cb 30e0      	CPI  R30,0
0009cc f021      	BREQ _0x20A0013
0009cd d23a      	RCALL SUBOPT_0x3D
0009ce d1a2      	RCALL SUBOPT_0x25
0009cf d23d      	RCALL SUBOPT_0x3E
0009d0 cff8      	RJMP _0x20A0011
                 _0x20A0013:
0009d1 d240      	RCALL SUBOPT_0x3F
0009d2 940e 0cd0 	CALL __ADDF12
0009d4 d227      	RCALL SUBOPT_0x3B
0009d5 e010      	LDI  R17,LOW(0)
                +
0009d6 e0e0     +LDI R30 , LOW ( 0x3F800000 )
0009d7 e0f0     +LDI R31 , HIGH ( 0x3F800000 )
0009d8 e860     +LDI R22 , BYTE3 ( 0x3F800000 )
0009d9 e37f     +LDI R23 , BYTE4 ( 0x3F800000 )
                 	__GETD1N 0x3F800000
0009da d232      	RCALL SUBOPT_0x3E
                 _0x20A0014:
0009db d236      	RCALL SUBOPT_0x3F
0009dc 940e 0db3 	CALL __CMPF12
0009de f068      	BRLO _0x20A0016
0009df d228      	RCALL SUBOPT_0x3D
0009e0 d17d      	RCALL SUBOPT_0x22
0009e1 d22b      	RCALL SUBOPT_0x3E
0009e2 5f1f      	SUBI R17,-LOW(1)
0009e3 3217      	CPI  R17,39
0009e4 f030      	BRLO _0x20A0017
0009e5 d211      	RCALL SUBOPT_0x3A
                +
0009e6 e4a9     +LDI R26 , LOW ( 2 * _0x20A0000 + ( 5 ) )
0009e7 e0b1     +LDI R27 , HIGH ( 2 * _0x20A0000 + ( 5 ) )
                 	__POINTW2FN _0x20A0000,5
0009e8 940e 092b 	CALL _strcpyf
0009ea c04b      	RJMP _0x20C0002
                 _0x20A0017:
0009eb cfef      	RJMP _0x20A0014
                 _0x20A0016:
0009ec 3010      	CPI  R17,0
0009ed f421      	BRNE _0x20A0018
0009ee d212      	RCALL SUBOPT_0x3C
0009ef e3e0      	LDI  R30,LOW(48)
0009f0 93ec      	ST   X,R30
0009f1 c020      	RJMP _0x20A0019
                 _0x20A0018:
                 _0x20A001A:
0009f2 2fe1      	MOV  R30,R17
0009f3 5011      	SUBI R17,1
0009f4 30e0      	CPI  R30,0
0009f5 f0e1      	BREQ _0x20A001C
0009f6 d211      	RCALL SUBOPT_0x3D
0009f7 d179      	RCALL SUBOPT_0x25
0009f8 d171      	RCALL SUBOPT_0x24
0009f9 01df      	MOVW R26,R30
0009fa 01cb      	MOVW R24,R22
0009fb 940e 0982 	CALL _floor
0009fd d20f      	RCALL SUBOPT_0x3E
0009fe d213      	RCALL SUBOPT_0x3F
0009ff 940e 0d6e 	CALL __DIVF21
000a01 940e 0c5d 	CALL __CFD1U
000a03 2f0e      	MOV  R16,R30
000a04 d1fc      	RCALL SUBOPT_0x3C
000a05 d179      	RCALL SUBOPT_0x27
000a06 e0f0      	LDI  R31,0
000a07 d200      	RCALL SUBOPT_0x3D
000a08 940e 0de9 	CALL __CWD1
000a0a 940e 0c96 	CALL __CDF1
000a0c 940e 0d20 	CALL __MULF12
000a0e d20c      	RCALL SUBOPT_0x40
000a0f d174      	RCALL SUBOPT_0x28
000a10 d1eb      	RCALL SUBOPT_0x3B
000a11 cfe0      	RJMP _0x20A001A
                 _0x20A001C:
                 _0x20A0019:
000a12 85e8      	LDD  R30,Y+8
000a13 30e0      	CPI  R30,0
000a14 f0e9      	BREQ _0x20C0001
000a15 d1eb      	RCALL SUBOPT_0x3C
000a16 e2ee      	LDI  R30,LOW(46)
000a17 93ec      	ST   X,R30
                 _0x20A001E:
000a18 85e8      	LDD  R30,Y+8
000a19 50e1      	SUBI R30,LOW(1)
000a1a 87e8      	STD  Y+8,R30
000a1b 5fef      	SUBI R30,-LOW(1)
000a1c f0a9      	BREQ _0x20A0020
000a1d d1fd      	RCALL SUBOPT_0x40
000a1e d13f      	RCALL SUBOPT_0x22
000a1f d1dc      	RCALL SUBOPT_0x3B
                +
000a20 85e9     +LDD R30 , Y + 9
000a21 85fa     +LDD R31 , Y + 9 + 1
000a22 856b     +LDD R22 , Y + 9 + 2
000a23 857c     +LDD R23 , Y + 9 + 3
                 	__GETD1S 9
000a24 940e 0c5d 	CALL __CFD1U
000a26 2f0e      	MOV  R16,R30
000a27 d1d9      	RCALL SUBOPT_0x3C
000a28 d156      	RCALL SUBOPT_0x27
000a29 e0f0      	LDI  R31,0
000a2a d1f0      	RCALL SUBOPT_0x40
000a2b 940e 0de9 	CALL __CWD1
000a2d 940e 0c96 	CALL __CDF1
000a2f d154      	RCALL SUBOPT_0x28
000a30 d1cb      	RCALL SUBOPT_0x3B
000a31 cfe6      	RJMP _0x20A001E
                 _0x20A0020:
                 _0x20C0001:
000a32 81ae      	LDD  R26,Y+6
000a33 81bf      	LDD  R27,Y+6+1
000a34 e0e0      	LDI  R30,LOW(0)
000a35 93ec      	ST   X,R30
                 _0x20C0002:
000a36 8119      	LDD  R17,Y+1
000a37 8108      	LDD  R16,Y+0
000a38 962d      	ADIW R28,13
000a39 9508      	RET
                 ; .FEND
                 
                 	.DSEG
                 
                 	.CSEG
                 
                 	.DSEG
                 _twi_tx_index:
000319           	.BYTE 0x1
                 _twi_rx_index:
00031a           	.BYTE 0x1
                 _twi_result:
00031b           	.BYTE 0x1
                 __output:
00031c           	.BYTE 0x5
                 _buffer_lcd:
000321           	.BYTE 0x14
                 _g_pre_cent:
000335           	.BYTE 0x4
                 _g_pre_csal:
000339           	.BYTE 0x4
                 _g_pre_vbat:
00033d           	.BYTE 0x4
                 _g_pre_vsal:
000341           	.BYTE 0x4
                 _g_pre_vent:
000345           	.BYTE 0x4
                 _g_cent:
000349           	.BYTE 0x4
                 _g_csal:
00034d           	.BYTE 0x4
                 _g_vbat:
000351           	.BYTE 0x4
                 _g_vsal:
000355           	.BYTE 0x4
                 _g_vent:
000359           	.BYTE 0x4
                 _g_pent:
00035d           	.BYTE 0x4
                 _g_psal:
000361           	.BYTE 0x4
                 _g_eff:
000365           	.BYTE 0x4
                 _slave_address_G101:
000369           	.BYTE 0x1
                 _twi_tx_buffer_G101:
00036a           	.BYTE 0x2
                 _bytes_to_tx_G101:
00036c           	.BYTE 0x1
                 _twi_rx_buffer_G101:
00036d           	.BYTE 0x2
                 _bytes_to_rx_G101:
00036f           	.BYTE 0x1
                 _twi_rx_buffer_size_G101:
000370           	.BYTE 0x1
                 _twi_slave_rx_handler_G101:
000371           	.BYTE 0x2
                 _twi_slave_tx_handler_G101:
000373           	.BYTE 0x2
                 __seed_G105:
000375           	.BYTE 0x4
                 
                 	.CSEG
                 ;OPTIMIZER ADDED SUBROUTINE, CALLED 2 TIMES, CODE SIZE REDUCTION:10 WORDS
                 SUBOPT_0x0:
000a3a 931a      	ST   -Y,R17
000a3b 8119      	LDD  R17,Y+1
000a3c 81ea      	LDD  R30,Y+2
000a3d 0fee      	LSL  R30
000a3e 2b1e      	OR   R17,R30
000a3f 81eb      	LDD  R30,Y+3
000a40 0fee      	LSL  R30
000a41 0fee      	LSL  R30
000a42 2b1e      	OR   R17,R30
000a43 81ec      	LDD  R30,Y+4
000a44 0fee      	LSL  R30
000a45 0fee      	LSL  R30
000a46 0fee      	LSL  R30
000a47 2b1e      	OR   R17,R30
000a48 81ed      	LDD  R30,Y+5
000a49 9508      	RET
                 
                 ;OPTIMIZER ADDED SUBROUTINE, CALLED 5 TIMES, CODE SIZE REDUCTION:5 WORDS
                 SUBOPT_0x1:
000a4a e3a2      	LDI  R26,LOW(50)
000a4b e0b0      	LDI  R27,0
000a4c 940c 0c20 	JMP  _delay_ms
                 
                 ;OPTIMIZER ADDED SUBROUTINE, CALLED 5 TIMES, CODE SIZE REDUCTION:13 WORDS
                 SUBOPT_0x2:
000a4e e0e0      	LDI  R30,LOW(0)
000a4f 93e0 031c 	STS  __output,R30
                +
000a51 93e0 031d+STS __output + ( 1 ) , R30
                 	__PUTB1MN __output,1
000a53 9508      	RET
                 
                 ;OPTIMIZER ADDED SUBROUTINE, CALLED 4 TIMES, CODE SIZE REDUCTION:3 WORDS
                 SUBOPT_0x3:
000a54 93ea      	ST   -Y,R30
000a55 e0a0      	LDI  R26,LOW(0)
000a56 940c 0184 	JMP  _LCD_I2C_LCD_Write
                 
                 ;OPTIMIZER ADDED SUBROUTINE, CALLED 3 TIMES, CODE SIZE REDUCTION:3 WORDS
                 SUBOPT_0x4:
000a58 940e 0184 	CALL _LCD_I2C_LCD_Write
                +
000a5a e683     +LDI R24 , LOW ( 99 )
                +__DELAY_USB_LOOP :
000a5b 958a     +DEC R24
000a5c f7f1     +BRNE __DELAY_USB_LOOP
                 	__DELAY_USB 99
000a5d 9508      	RET
                 
                 ;OPTIMIZER ADDED SUBROUTINE, CALLED 2 TIMES, CODE SIZE REDUCTION:2 WORDS
                 SUBOPT_0x5:
000a5e e0e1      	LDI  R30,LOW(1)
                +
000a5f 93e0 031e+STS __output + ( 2 ) , R30
                 	__PUTB1MN __output,2
000a61 e1ec      	LDI  R30,LOW(__output)
000a62 e0f3      	LDI  R31,HIGH(__output)
000a63 e0a5      	LDI  R26,5
000a64 940e 0e90 	CALL __PUTPARL
000a66 9508      	RET
                 
                 ;OPTIMIZER ADDED SUBROUTINE, CALLED 2 TIMES, CODE SIZE REDUCTION:8 WORDS
                 SUBOPT_0x6:
000a67 2fae      	MOV  R26,R30
000a68 940e 0173 	CALL _LCD_I2C_I2C_Write
                +
000a6a e083     +LDI R24 , LOW ( 3 )
                +__DELAY_USB_LOOP :
000a6b 958a     +DEC R24
000a6c f7f1     +BRNE __DELAY_USB_LOOP
                 	__DELAY_USB 3
000a6d e0e0      	LDI  R30,LOW(0)
                +
000a6e 93e0 031e+STS __output + ( 2 ) , R30
                 	__PUTB1MN __output,2
000a70 e1ec      	LDI  R30,LOW(__output)
000a71 e0f3      	LDI  R31,HIGH(__output)
000a72 e0a5      	LDI  R26,5
000a73 940e 0e90 	CALL __PUTPARL
000a75 9508      	RET
                 
                 ;OPTIMIZER ADDED SUBROUTINE, CALLED 2 TIMES, CODE SIZE REDUCTION:10 WORDS
                 SUBOPT_0x7:
000a76 920a      	ST   -Y,R0
000a77 921a      	ST   -Y,R1
000a78 92fa      	ST   -Y,R15
000a79 936a      	ST   -Y,R22
000a7a 937a      	ST   -Y,R23
000a7b 938a      	ST   -Y,R24
000a7c 939a      	ST   -Y,R25
000a7d 93aa      	ST   -Y,R26
000a7e 93ba      	ST   -Y,R27
000a7f 93ea      	ST   -Y,R30
000a80 93fa      	ST   -Y,R31
000a81 b7ef      	IN   R30,SREG
000a82 93ea      	ST   -Y,R30
000a83 cfc6      	RJMP SUBOPT_0x1
                 
                 ;OPTIMIZER ADDED SUBROUTINE, CALLED 6 TIMES, CODE SIZE REDUCTION:12 WORDS
                 SUBOPT_0x8:
000a84 e0e0      	LDI  R30,LOW(0)
000a85 93ea      	ST   -Y,R30
000a86 e0a0      	LDI  R26,LOW(0)
000a87 940c 0126 	JMP  _LCD_I2C_setCursor
                 
                 ;OPTIMIZER ADDED SUBROUTINE, CALLED 5 TIMES, CODE SIZE REDUCTION:13 WORDS
                 SUBOPT_0x9:
000a89 2766      	CLR  R22
000a8a 2777      	CLR  R23
000a8b 940e 0c96 	CALL __CDF1
000a8d 940e 0e72 	CALL __PUTDP1
000a8f 9508      	RET
                 
                 ;OPTIMIZER ADDED SUBROUTINE, CALLED 2 TIMES, CODE SIZE REDUCTION:3 WORDS
                 SUBOPT_0xA:
000a90 91e0 0335 	LDS  R30,_g_pre_cent
000a92 91f0 0336 	LDS  R31,_g_pre_cent+1
000a94 9160 0337 	LDS  R22,_g_pre_cent+2
000a96 9170 0338 	LDS  R23,_g_pre_cent+3
000a98 9508      	RET
                 
                 ;OPTIMIZER ADDED SUBROUTINE, CALLED 2 TIMES, CODE SIZE REDUCTION:1 WORDS
                 SUBOPT_0xB:
                +
000a99 e0aa     +LDI R26 , LOW ( 0x3BA0280A )
000a9a e2b8     +LDI R27 , HIGH ( 0x3BA0280A )
000a9b ea80     +LDI R24 , BYTE3 ( 0x3BA0280A )
000a9c e39b     +LDI R25 , BYTE4 ( 0x3BA0280A )
                 	__GETD2N 0x3BA0280A
000a9d 940e 0d20 	CALL __MULF12
000a9f 9508      	RET
                 
                 ;OPTIMIZER ADDED SUBROUTINE, CALLED 2 TIMES, CODE SIZE REDUCTION:3 WORDS
                 SUBOPT_0xC:
000aa0 91e0 0339 	LDS  R30,_g_pre_csal
000aa2 91f0 033a 	LDS  R31,_g_pre_csal+1
000aa4 9160 033b 	LDS  R22,_g_pre_csal+2
000aa6 9170 033c 	LDS  R23,_g_pre_csal+3
000aa8 9508      	RET
                 
                 ;OPTIMIZER ADDED SUBROUTINE, CALLED 2 TIMES, CODE SIZE REDUCTION:3 WORDS
                 SUBOPT_0xD:
000aa9 91e0 0345 	LDS  R30,_g_pre_vent
000aab 91f0 0346 	LDS  R31,_g_pre_vent+1
000aad 9160 0347 	LDS  R22,_g_pre_vent+2
000aaf 9170 0348 	LDS  R23,_g_pre_vent+3
000ab1 9508      	RET
                 
                 ;OPTIMIZER ADDED SUBROUTINE, CALLED 2 TIMES, CODE SIZE REDUCTION:3 WORDS
                 SUBOPT_0xE:
000ab2 91e0 033d 	LDS  R30,_g_pre_vbat
000ab4 91f0 033e 	LDS  R31,_g_pre_vbat+1
000ab6 9160 033f 	LDS  R22,_g_pre_vbat+2
000ab8 9170 0340 	LDS  R23,_g_pre_vbat+3
000aba 9508      	RET
                 
                 ;OPTIMIZER ADDED SUBROUTINE, CALLED 2 TIMES, CODE SIZE REDUCTION:1 WORDS
                 SUBOPT_0xF:
                +
000abb e3ae     +LDI R26 , LOW ( 0x3C703C3E )
000abc e3bc     +LDI R27 , HIGH ( 0x3C703C3E )
000abd e780     +LDI R24 , BYTE3 ( 0x3C703C3E )
000abe e39c     +LDI R25 , BYTE4 ( 0x3C703C3E )
                 	__GETD2N 0x3C703C3E
000abf 940e 0d20 	CALL __MULF12
000ac1 9508      	RET
                 
                 ;OPTIMIZER ADDED SUBROUTINE, CALLED 2 TIMES, CODE SIZE REDUCTION:3 WORDS
                 SUBOPT_0x10:
000ac2 91e0 0341 	LDS  R30,_g_pre_vsal
000ac4 91f0 0342 	LDS  R31,_g_pre_vsal+1
000ac6 9160 0343 	LDS  R22,_g_pre_vsal+2
000ac8 9170 0344 	LDS  R23,_g_pre_vsal+3
000aca 9508      	RET
                 
                 ;OPTIMIZER ADDED SUBROUTINE, CALLED 2 TIMES, CODE SIZE REDUCTION:3 WORDS
                 SUBOPT_0x11:
000acb 91e0 0359 	LDS  R30,_g_vent
000acd 91f0 035a 	LDS  R31,_g_vent+1
000acf 9160 035b 	LDS  R22,_g_vent+2
000ad1 9170 035c 	LDS  R23,_g_vent+3
000ad3 9508      	RET
                 
                 ;OPTIMIZER ADDED SUBROUTINE, CALLED 2 TIMES, CODE SIZE REDUCTION:3 WORDS
                 SUBOPT_0x12:
000ad4 91a0 0349 	LDS  R26,_g_cent
000ad6 91b0 034a 	LDS  R27,_g_cent+1
000ad8 9180 034b 	LDS  R24,_g_cent+2
000ada 9190 034c 	LDS  R25,_g_cent+3
000adc 9508      	RET
                 
                 ;OPTIMIZER ADDED SUBROUTINE, CALLED 2 TIMES, CODE SIZE REDUCTION:3 WORDS
                 SUBOPT_0x13:
000add 91e0 0355 	LDS  R30,_g_vsal
000adf 91f0 0356 	LDS  R31,_g_vsal+1
000ae1 9160 0357 	LDS  R22,_g_vsal+2
000ae3 9170 0358 	LDS  R23,_g_vsal+3
000ae5 9508      	RET
                 
                 ;OPTIMIZER ADDED SUBROUTINE, CALLED 2 TIMES, CODE SIZE REDUCTION:3 WORDS
                 SUBOPT_0x14:
000ae6 91a0 034d 	LDS  R26,_g_csal
000ae8 91b0 034e 	LDS  R27,_g_csal+1
000aea 9180 034f 	LDS  R24,_g_csal+2
000aec 9190 0350 	LDS  R25,_g_csal+3
000aee 9508      	RET
                 
                 ;OPTIMIZER ADDED SUBROUTINE, CALLED 2 TIMES, CODE SIZE REDUCTION:3 WORDS
                 SUBOPT_0x15:
000aef 91e0 0361 	LDS  R30,_g_psal
000af1 91f0 0362 	LDS  R31,_g_psal+1
000af3 9160 0363 	LDS  R22,_g_psal+2
000af5 9170 0364 	LDS  R23,_g_psal+3
000af7 9508      	RET
                 
                 ;OPTIMIZER ADDED SUBROUTINE, CALLED 2 TIMES, CODE SIZE REDUCTION:3 WORDS
                 SUBOPT_0x16:
000af8 91e0 035d 	LDS  R30,_g_pent
000afa 91f0 035e 	LDS  R31,_g_pent+1
000afc 9160 035f 	LDS  R22,_g_pent+2
000afe 9170 0360 	LDS  R23,_g_pent+3
000b00 9508      	RET
                 
                 ;OPTIMIZER ADDED SUBROUTINE, CALLED 10 TIMES, CODE SIZE REDUCTION:15 WORDS
                 SUBOPT_0x17:
000b01 e2e1      	LDI  R30,LOW(_buffer_lcd)
000b02 e0f3      	LDI  R31,HIGH(_buffer_lcd)
000b03 93fa      	ST   -Y,R31
000b04 93ea      	ST   -Y,R30
000b05 9508      	RET
                 
                 ;OPTIMIZER ADDED SUBROUTINE, CALLED 2 TIMES, CODE SIZE REDUCTION:9 WORDS
                 SUBOPT_0x18:
                +
000b06 e0e0     +LDI R30 , LOW ( 0x447A0000 )
000b07 e0f0     +LDI R31 , HIGH ( 0x447A0000 )
000b08 e76a     +LDI R22 , BYTE3 ( 0x447A0000 )
000b09 e474     +LDI R23 , BYTE4 ( 0x447A0000 )
                 	__GETD1N 0x447A0000
000b0a 940e 0d20 	CALL __MULF12
000b0c 940e 0e86 	CALL __PUTPARD1
000b0e e084      	LDI  R24,4
000b0f 940e 06e4 	CALL _sprintf
000b11 9628      	ADIW R28,8
000b12 cf71      	RJMP SUBOPT_0x8
                 
                 ;OPTIMIZER ADDED SUBROUTINE, CALLED 5 TIMES, CODE SIZE REDUCTION:13 WORDS
                 SUBOPT_0x19:
000b13 e2a1      	LDI  R26,LOW(_buffer_lcd)
000b14 e0b3      	LDI  R27,HIGH(_buffer_lcd)
000b15 940e 019f 	CALL _LCD_I2C_puts
000b17 cfe9      	RJMP SUBOPT_0x17
                 
                 ;OPTIMIZER ADDED SUBROUTINE, CALLED 6 TIMES, CODE SIZE REDUCTION:17 WORDS
                 SUBOPT_0x1A:
000b18 940e 0e86 	CALL __PUTPARD1
000b1a e084      	LDI  R24,4
000b1b 940e 06e4 	CALL _sprintf
000b1d 9628      	ADIW R28,8
000b1e 9508      	RET
                 
                 ;OPTIMIZER ADDED SUBROUTINE, CALLED 5 TIMES, CODE SIZE REDUCTION:13 WORDS
                 SUBOPT_0x1B:
000b1f 940e 0c5f 	CALL __CFD1
000b21 940e 0de9 	CALL __CWD1
000b23 940e 0e86 	CALL __PUTPARD1
000b25 9508      	RET
                 
                 ;OPTIMIZER ADDED SUBROUTINE, CALLED 3 TIMES, CODE SIZE REDUCTION:3 WORDS
                 SUBOPT_0x1C:
000b26 91ed      	LD   R30,X+
000b27 91fd      	LD   R31,X+
000b28 9631      	ADIW R30,1
000b29 93fe      	ST   -X,R31
000b2a 93ee      	ST   -X,R30
000b2b 9508      	RET
                 
                 ;OPTIMIZER ADDED SUBROUTINE, CALLED 2 TIMES, CODE SIZE REDUCTION:2 WORDS
                 SUBOPT_0x1D:
000b2c 93ba      	ST   -Y,R27
000b2d 93aa      	ST   -Y,R26
000b2e 9724      	SBIW R28,4
000b2f e0e0      	LDI  R30,LOW(0)
000b30 83e8      	ST   Y,R30
000b31 83e9      	STD  Y+1,R30
000b32 9508      	RET
                 
                 ;OPTIMIZER ADDED SUBROUTINE, CALLED 4 TIMES, CODE SIZE REDUCTION:33 WORDS
                 SUBOPT_0x1E:
                +
000b33 81ac     +LDD R26 , Y + 4
000b34 81bd     +LDD R27 , Y + 4 + 1
000b35 818e     +LDD R24 , Y + 4 + 2
000b36 819f     +LDD R25 , Y + 4 + 3
                 	__GETD2S 4
                +
000b37 e0e0     +LDI R30 , LOW ( 0x41200000 )
000b38 e0f0     +LDI R31 , HIGH ( 0x41200000 )
000b39 e260     +LDI R22 , BYTE3 ( 0x41200000 )
000b3a e471     +LDI R23 , BYTE4 ( 0x41200000 )
                 	__GETD1N 0x41200000
000b3b 940e 0d20 	CALL __MULF12
                +
000b3d 83ec     +STD Y + 4 , R30
000b3e 83fd     +STD Y + 4 + 1 , R31
000b3f 836e     +STD Y + 4 + 2 , R22
000b40 837f     +STD Y + 4 + 3 , R23
                 	__PUTD1S 4
000b41 9508      	RET
                 
                 ;OPTIMIZER ADDED SUBROUTINE, CALLED 4 TIMES, CODE SIZE REDUCTION:21 WORDS
                 SUBOPT_0x1F:
                +
000b42 81ec     +LDD R30 , Y + 4
000b43 81fd     +LDD R31 , Y + 4 + 1
000b44 816e     +LDD R22 , Y + 4 + 2
000b45 817f     +LDD R23 , Y + 4 + 3
                 	__GETD1S 4
                +
000b46 85ac     +LDD R26 , Y + 12
000b47 85bd     +LDD R27 , Y + 12 + 1
000b48 858e     +LDD R24 , Y + 12 + 2
000b49 859f     +LDD R25 , Y + 12 + 3
                 	__GETD2S 12
000b4a 940e 0db3 	CALL __CMPF12
000b4c 9508      	RET
                 
                 ;OPTIMIZER ADDED SUBROUTINE, CALLED 5 TIMES, CODE SIZE REDUCTION:5 WORDS
                 SUBOPT_0x20:
                +
000b4d 85ac     +LDD R26 , Y + 12
000b4e 85bd     +LDD R27 , Y + 12 + 1
000b4f 858e     +LDD R24 , Y + 12 + 2
000b50 859f     +LDD R25 , Y + 12 + 3
                 	__GETD2S 12
000b51 9508      	RET
                 
                 ;OPTIMIZER ADDED SUBROUTINE, CALLED 2 TIMES, CODE SIZE REDUCTION:6 WORDS
                 SUBOPT_0x21:
                +
000b52 eced     +LDI R30 , LOW ( 0x3DCCCCCD )
000b53 ecfc     +LDI R31 , HIGH ( 0x3DCCCCCD )
000b54 ec6c     +LDI R22 , BYTE3 ( 0x3DCCCCCD )
000b55 e37d     +LDI R23 , BYTE4 ( 0x3DCCCCCD )
                 	__GETD1N 0x3DCCCCCD
000b56 940e 0d20 	CALL __MULF12
                +
000b58 87ec     +STD Y + 12 , R30
000b59 87fd     +STD Y + 12 + 1 , R31
000b5a 876e     +STD Y + 12 + 2 , R22
000b5b 877f     +STD Y + 12 + 3 , R23
                 	__PUTD1S 12
000b5c 5f3f      	SUBI R19,-LOW(1)
000b5d 9508      	RET
                 
                 ;OPTIMIZER ADDED SUBROUTINE, CALLED 3 TIMES, CODE SIZE REDUCTION:5 WORDS
                 SUBOPT_0x22:
                +
000b5e e0e0     +LDI R30 , LOW ( 0x41200000 )
000b5f e0f0     +LDI R31 , HIGH ( 0x41200000 )
000b60 e260     +LDI R22 , BYTE3 ( 0x41200000 )
000b61 e471     +LDI R23 , BYTE4 ( 0x41200000 )
                 	__GETD1N 0x41200000
000b62 940e 0d20 	CALL __MULF12
000b64 9508      	RET
                 
                 ;OPTIMIZER ADDED SUBROUTINE, CALLED 3 TIMES, CODE SIZE REDUCTION:1 WORDS
                 SUBOPT_0x23:
                +
000b65 87ec     +STD Y + 12 , R30
000b66 87fd     +STD Y + 12 + 1 , R31
000b67 876e     +STD Y + 12 + 2 , R22
000b68 877f     +STD Y + 12 + 3 , R23
                 	__PUTD1S 12
000b69 9508      	RET
                 
                 ;OPTIMIZER ADDED SUBROUTINE, CALLED 3 TIMES, CODE SIZE REDUCTION:5 WORDS
                 SUBOPT_0x24:
                +
000b6a e0a0     +LDI R26 , LOW ( 0x3F000000 )
000b6b e0b0     +LDI R27 , HIGH ( 0x3F000000 )
000b6c e080     +LDI R24 , BYTE3 ( 0x3F000000 )
000b6d e39f     +LDI R25 , BYTE4 ( 0x3F000000 )
                 	__GETD2N 0x3F000000
000b6e 940e 0cd0 	CALL __ADDF12
000b70 9508      	RET
                 
                 ;OPTIMIZER ADDED SUBROUTINE, CALLED 3 TIMES, CODE SIZE REDUCTION:5 WORDS
                 SUBOPT_0x25:
                +
000b71 eced     +LDI R30 , LOW ( 0x3DCCCCCD )
000b72 ecfc     +LDI R31 , HIGH ( 0x3DCCCCCD )
000b73 ec6c     +LDI R22 , BYTE3 ( 0x3DCCCCCD )
000b74 e37d     +LDI R23 , BYTE4 ( 0x3DCCCCCD )
                 	__GETD1N 0x3DCCCCCD
000b75 940e 0d20 	CALL __MULF12
000b77 9508      	RET
                 
                 ;OPTIMIZER ADDED SUBROUTINE, CALLED 2 TIMES, CODE SIZE REDUCTION:1 WORDS
                 SUBOPT_0x26:
000b78 85a8      	LDD  R26,Y+8
000b79 85b9      	LDD  R27,Y+8+1
000b7a 9611      	ADIW R26,1
000b7b 87a8      	STD  Y+8,R26
000b7c 87b9      	STD  Y+8+1,R27
000b7d 9711      	SBIW R26,1
000b7e 9508      	RET
                 
                 ;OPTIMIZER ADDED SUBROUTINE, CALLED 3 TIMES, CODE SIZE REDUCTION:1 WORDS
                 SUBOPT_0x27:
000b7f 2fe0      	MOV  R30,R16
000b80 5de0      	SUBI R30,-LOW(48)
000b81 93ec      	ST   X,R30
000b82 2fe0      	MOV  R30,R16
000b83 9508      	RET
                 
                 ;OPTIMIZER ADDED SUBROUTINE, CALLED 3 TIMES, CODE SIZE REDUCTION:1 WORDS
                 SUBOPT_0x28:
000b84 940e 0e98 	CALL __SWAPD12
000b86 940e 0cc9 	CALL __SUBF12
000b88 9508      	RET
                 
                 ;OPTIMIZER ADDED SUBROUTINE, CALLED 4 TIMES, CODE SIZE REDUCTION:6 WORDS
                 SUBOPT_0x29:
000b89 85e8      	LDD  R30,Y+8
000b8a 85f9      	LDD  R31,Y+8+1
000b8b 9631      	ADIW R30,1
000b8c 87e8      	STD  Y+8,R30
000b8d 87f9      	STD  Y+8+1,R31
000b8e 9508      	RET
                 
                 ;OPTIMIZER ADDED SUBROUTINE, CALLED 5 TIMES, CODE SIZE REDUCTION:13 WORDS
                 SUBOPT_0x2A:
000b8f 932a      	ST   -Y,R18
000b90 81af      	LDD  R26,Y+7
000b91 85b8      	LDD  R27,Y+7+1
000b92 85e9      	LDD  R30,Y+9
000b93 85fa      	LDD  R31,Y+9+1
000b94 9509      	ICALL
000b95 9508      	RET
                 
                 ;OPTIMIZER ADDED SUBROUTINE, CALLED 8 TIMES, CODE SIZE REDUCTION:25 WORDS
                 SUBOPT_0x2B:
                +
000b96 01fe     +MOVW R30 , R28
000b97 5ae6     +SUBI R30 , LOW ( - 90 )
000b98 4fff     +SBCI R31 , HIGH ( - 90 )
000b99 9001     +LD R0 , Z +
000b9a 81f0     +LD R31 , Z
000b9b 2de0     +MOV R30 , R0
                 	__GETW1SX 90
000b9c 9508      	RET
                 
                 ;OPTIMIZER ADDED SUBROUTINE, CALLED 7 TIMES, CODE SIZE REDUCTION:21 WORDS
                 SUBOPT_0x2C:
000b9d 9734      	SBIW R30,4
                +
000b9e 01de     +MOVW R26 , R28
000b9f 5aa6     +SUBI R26 , LOW ( - 90 )
000ba0 4fbf     +SBCI R27 , HIGH ( - 90 )
000ba1 93ed     +ST X + , R30
000ba2 93fc     +ST X , R31
                 	__PUTW1SX 90
000ba3 9508      	RET
                 
                 ;OPTIMIZER ADDED SUBROUTINE, CALLED 4 TIMES, CODE SIZE REDUCTION:6 WORDS
                 SUBOPT_0x2D:
000ba4 81af      	LDD  R26,Y+7
000ba5 85b8      	LDD  R27,Y+7+1
000ba6 85e9      	LDD  R30,Y+9
000ba7 85fa      	LDD  R31,Y+9+1
000ba8 9509      	ICALL
000ba9 9508      	RET
                 
                 ;OPTIMIZER ADDED SUBROUTINE, CALLED 6 TIMES, CODE SIZE REDUCTION:17 WORDS
                 SUBOPT_0x2E:
                +
000baa 01de     +MOVW R26 , R28
000bab 5aa6     +SUBI R26 , LOW ( - 90 )
000bac 4fbf     +SBCI R27 , HIGH ( - 90 )
000bad 900d     +LD R0 , X +
000bae 91bc     +LD R27 , X
000baf 2da0     +MOV R26 , R0
                 	__GETW2SX 90
000bb0 9508      	RET
                 
                 ;OPTIMIZER ADDED SUBROUTINE, CALLED 4 TIMES, CODE SIZE REDUCTION:3 WORDS
                 SUBOPT_0x2F:
                +
000bb1 87ea     +STD Y + 10 , R30
000bb2 87fb     +STD Y + 10 + 1 , R31
000bb3 876c     +STD Y + 10 + 2 , R22
000bb4 877d     +STD Y + 10 + 3 , R23
                 	__PUTD1S 10
000bb5 9508      	RET
                 
                 ;OPTIMIZER ADDED SUBROUTINE, CALLED 6 TIMES, CODE SIZE REDUCTION:7 WORDS
                 SUBOPT_0x30:
000bb6 dfdf      	RCALL SUBOPT_0x2B
000bb7 cfe5      	RJMP SUBOPT_0x2C
                 
                 ;OPTIMIZER ADDED SUBROUTINE, CALLED 4 TIMES, CODE SIZE REDUCTION:3 WORDS
                 SUBOPT_0x31:
                +
000bb8 85ea     +LDD R30 , Y + 10
000bb9 85fb     +LDD R31 , Y + 10 + 1
000bba 856c     +LDD R22 , Y + 10 + 2
000bbb 857d     +LDD R23 , Y + 10 + 3
                 	__GETD1S 10
000bbc 9508      	RET
                 
                 ;OPTIMIZER ADDED SUBROUTINE, CALLED 2 TIMES, CODE SIZE REDUCTION:2 WORDS
                 SUBOPT_0x32:
000bbd 87ee      	STD  Y+14,R30
000bbe 87ff      	STD  Y+14+1,R31
000bbf 85ae      	LDD  R26,Y+14
000bc0 85bf      	LDD  R27,Y+14+1
000bc1 940e 0938 	CALL _strlen
000bc3 2f1e      	MOV  R17,R30
000bc4 9508      	RET
                 
                 ;OPTIMIZER ADDED SUBROUTINE, CALLED 4 TIMES, CODE SIZE REDUCTION:6 WORDS
                 SUBOPT_0x33:
000bc5 dfe4      	RCALL SUBOPT_0x2E
000bc6 9614      	ADIW R26,4
000bc7 940e 0e68 	CALL __GETW1P
000bc9 9508      	RET
                 
                 ;OPTIMIZER ADDED SUBROUTINE, CALLED 5 TIMES, CODE SIZE REDUCTION:5 WORDS
                 SUBOPT_0x34:
                +
000bca 8be8     +STD Y + 16 , R30
000bcb 8bf9     +STD Y + 16 + 1 , R31
000bcc 8b6a     +STD Y + 16 + 2 , R22
000bcd 8b7b     +STD Y + 16 + 3 , R23
                 	__PUTD1S 16
000bce 9508      	RET
                 
                 ;OPTIMIZER ADDED SUBROUTINE, CALLED 2 TIMES, CODE SIZE REDUCTION:12 WORDS
                 SUBOPT_0x35:
000bcf 7f0b      	ANDI R16,LOW(251)
000bd0 89ed      	LDD  R30,Y+21
000bd1 93ea      	ST   -Y,R30
                +
000bd2 01de     +MOVW R26 , R28
000bd3 5aa9     +SUBI R26 , LOW ( - 87 )
000bd4 4fbf     +SBCI R27 , HIGH ( - 87 )
000bd5 900d     +LD R0 , X +
000bd6 91bc     +LD R27 , X
000bd7 2da0     +MOV R26 , R0
                 	__GETW2SX 87
                +
000bd8 01fe     +MOVW R30 , R28
000bd9 5ae7     +SUBI R30 , LOW ( - 89 )
000bda 4fff     +SBCI R31 , HIGH ( - 89 )
000bdb 9001     +LD R0 , Z +
000bdc 81f0     +LD R31 , Z
000bdd 2de0     +MOV R30 , R0
                 	__GETW1SX 89
000bde 9509      	ICALL
000bdf 3050      	CPI  R21,0
000be0 9508      	RET
                 
                 ;OPTIMIZER ADDED SUBROUTINE, CALLED 2 TIMES, CODE SIZE REDUCTION:3 WORDS
                 SUBOPT_0x36:
                +
000be1 89e8     +LDD R30 , Y + 16
000be2 89f9     +LDD R31 , Y + 16 + 1
000be3 896a     +LDD R22 , Y + 16 + 2
000be4 897b     +LDD R23 , Y + 16 + 3
                 	__GETD1S 16
                +
000be5 85aa     +LDD R26 , Y + 10
000be6 85bb     +LDD R27 , Y + 10 + 1
000be7 858c     +LDD R24 , Y + 10 + 2
000be8 859d     +LDD R25 , Y + 10 + 3
                 	__GETD2S 10
000be9 9508      	RET
                 
                 ;OPTIMIZER ADDED SUBROUTINE, CALLED 2 TIMES, CODE SIZE REDUCTION:1 WORDS
                 SUBOPT_0x37:
000bea 01de      	MOVW R26,R28
000beb 961c      	ADIW R26,12
000bec 940e 0dd3 	CALL __ADDW2R15
000bee 940e 0e68 	CALL __GETW1P
000bf0 9508      	RET
                 
                 ;OPTIMIZER ADDED SUBROUTINE, CALLED 3 TIMES, CODE SIZE REDUCTION:1 WORDS
                 SUBOPT_0x38:
000bf1 940e 0e81 	CALL __PUTD1S0
000bf3 9508      	RET
                 
                 ;OPTIMIZER ADDED SUBROUTINE, CALLED 3 TIMES, CODE SIZE REDUCTION:1 WORDS
                 SUBOPT_0x39:
000bf4 940e 0e77 	CALL __GETD1S0
000bf6 9508      	RET
                 
                 ;OPTIMIZER ADDED SUBROUTINE, CALLED 3 TIMES, CODE SIZE REDUCTION:1 WORDS
                 SUBOPT_0x3A:
000bf7 81ee      	LDD  R30,Y+6
000bf8 81ff      	LDD  R31,Y+6+1
000bf9 93fa      	ST   -Y,R31
000bfa 93ea      	ST   -Y,R30
000bfb 9508      	RET
                 
                 ;OPTIMIZER ADDED SUBROUTINE, CALLED 5 TIMES, CODE SIZE REDUCTION:5 WORDS
                 SUBOPT_0x3B:
                +
000bfc 87e9     +STD Y + 9 , R30
000bfd 87fa     +STD Y + 9 + 1 , R31
000bfe 876b     +STD Y + 9 + 2 , R22
000bff 877c     +STD Y + 9 + 3 , R23
                 	__PUTD1S 9
000c00 9508      	RET
                 
                 ;OPTIMIZER ADDED SUBROUTINE, CALLED 5 TIMES, CODE SIZE REDUCTION:13 WORDS
                 SUBOPT_0x3C:
000c01 81ae      	LDD  R26,Y+6
000c02 81bf      	LDD  R27,Y+6+1
000c03 9611      	ADIW R26,1
000c04 83ae      	STD  Y+6,R26
000c05 83bf      	STD  Y+6+1,R27
000c06 9711      	SBIW R26,1
000c07 9508      	RET
                 
                 ;OPTIMIZER ADDED SUBROUTINE, CALLED 4 TIMES, CODE SIZE REDUCTION:3 WORDS
                 SUBOPT_0x3D:
                +
000c08 81aa     +LDD R26 , Y + 2
000c09 81bb     +LDD R27 , Y + 2 + 1
000c0a 818c     +LDD R24 , Y + 2 + 2
000c0b 819d     +LDD R25 , Y + 2 + 3
                 	__GETD2S 2
000c0c 9508      	RET
                 
                 ;OPTIMIZER ADDED SUBROUTINE, CALLED 4 TIMES, CODE SIZE REDUCTION:3 WORDS
                 SUBOPT_0x3E:
                +
000c0d 83ea     +STD Y + 2 , R30
000c0e 83fb     +STD Y + 2 + 1 , R31
000c0f 836c     +STD Y + 2 + 2 , R22
000c10 837d     +STD Y + 2 + 3 , R23
                 	__PUTD1S 2
000c11 9508      	RET
                 
                 ;OPTIMIZER ADDED SUBROUTINE, CALLED 3 TIMES, CODE SIZE REDUCTION:9 WORDS
                 SUBOPT_0x3F:
                +
000c12 81ea     +LDD R30 , Y + 2
000c13 81fb     +LDD R31 , Y + 2 + 1
000c14 816c     +LDD R22 , Y + 2 + 2
000c15 817d     +LDD R23 , Y + 2 + 3
                 	__GETD1S 2
                +
000c16 85a9     +LDD R26 , Y + 9
000c17 85ba     +LDD R27 , Y + 9 + 1
000c18 858b     +LDD R24 , Y + 9 + 2
000c19 859c     +LDD R25 , Y + 9 + 3
                 	__GETD2S 9
000c1a 9508      	RET
                 
                 ;OPTIMIZER ADDED SUBROUTINE, CALLED 3 TIMES, CODE SIZE REDUCTION:1 WORDS
                 SUBOPT_0x40:
                +
000c1b 85a9     +LDD R26 , Y + 9
000c1c 85ba     +LDD R27 , Y + 9 + 1
000c1d 858b     +LDD R24 , Y + 9 + 2
000c1e 859c     +LDD R25 , Y + 9 + 3
                 	__GETD2S 9
000c1f 9508      	RET
                 
                 
                 	.CSEG
                 _delay_ms:
000c20 9610      	adiw r26,0
000c21 f039      	breq __delay_ms1
                 __delay_ms0:
                +
000c22 ed80     +LDI R24 , LOW ( 0x7D0 )
000c23 e097     +LDI R25 , HIGH ( 0x7D0 )
                +__DELAY_USW_LOOP :
000c24 9701     +SBIW R24 , 1
000c25 f7f1     +BRNE __DELAY_USW_LOOP
                 	__DELAY_USW 0x7D0
000c26 95a8      	wdr
000c27 9711      	sbiw r26,1
000c28 f7c9      	brne __delay_ms0
                 __delay_ms1:
000c29 9508      	ret
                 
                 __ANEGF1:
000c2a 9730      	SBIW R30,0
000c2b 4060      	SBCI R22,0
000c2c 4070      	SBCI R23,0
000c2d f009      	BREQ __ANEGF10
000c2e 5870      	SUBI R23,0x80
                 __ANEGF10:
000c2f 9508      	RET
                 
                 __ROUND_REPACK:
000c30 2355      	TST  R21
000c31 f442      	BRPL __REPACK
000c32 3850      	CPI  R21,0x80
000c33 f411      	BRNE __ROUND_REPACK0
000c34 ffe0      	SBRS R30,0
000c35 c004      	RJMP __REPACK
                 __ROUND_REPACK0:
000c36 9631      	ADIW R30,1
000c37 1f69      	ADC  R22,R25
000c38 1f79      	ADC  R23,R25
000c39 f06b      	BRVS __REPACK1
                 
                 __REPACK:
000c3a e850      	LDI  R21,0x80
000c3b 2757      	EOR  R21,R23
000c3c f411      	BRNE __REPACK0
000c3d 935f      	PUSH R21
000c3e c0cf      	RJMP __ZERORES
                 __REPACK0:
000c3f 3f5f      	CPI  R21,0xFF
000c40 f031      	BREQ __REPACK1
000c41 0f66      	LSL  R22
000c42 0c00      	LSL  R0
000c43 9557      	ROR  R21
000c44 9567      	ROR  R22
000c45 2f75      	MOV  R23,R21
000c46 9508      	RET
                 __REPACK1:
000c47 935f      	PUSH R21
000c48 2000      	TST  R0
000c49 f00a      	BRMI __REPACK2
000c4a c0cf      	RJMP __MAXRES
                 __REPACK2:
000c4b c0c8      	RJMP __MINRES
                 
                 __UNPACK:
000c4c e850      	LDI  R21,0x80
000c4d 2e19      	MOV  R1,R25
000c4e 2215      	AND  R1,R21
000c4f 0f88      	LSL  R24
000c50 1f99      	ROL  R25
000c51 2795      	EOR  R25,R21
000c52 0f55      	LSL  R21
000c53 9587      	ROR  R24
                 
                 __UNPACK1:
000c54 e850      	LDI  R21,0x80
000c55 2e07      	MOV  R0,R23
000c56 2205      	AND  R0,R21
000c57 0f66      	LSL  R22
000c58 1f77      	ROL  R23
000c59 2775      	EOR  R23,R21
000c5a 0f55      	LSL  R21
000c5b 9567      	ROR  R22
000c5c 9508      	RET
                 
                 __CFD1U:
000c5d 9468      	SET
000c5e c001      	RJMP __CFD1U0
                 __CFD1:
000c5f 94e8      	CLT
                 __CFD1U0:
000c60 935f      	PUSH R21
000c61 dff2      	RCALL __UNPACK1
000c62 3870      	CPI  R23,0x80
000c63 f018      	BRLO __CFD10
000c64 3f7f      	CPI  R23,0xFF
000c65 f408      	BRCC __CFD10
000c66 c0a7      	RJMP __ZERORES
                 __CFD10:
000c67 e156      	LDI  R21,22
000c68 1b57      	SUB  R21,R23
000c69 f4aa      	BRPL __CFD11
000c6a 9551      	NEG  R21
000c6b 3058      	CPI  R21,8
000c6c f40e      	BRTC __CFD19
000c6d 3059      	CPI  R21,9
                 __CFD19:
000c6e f030      	BRLO __CFD17
000c6f efef      	SER  R30
000c70 efff      	SER  R31
000c71 ef6f      	SER  R22
000c72 e77f      	LDI  R23,0x7F
000c73 f977      	BLD  R23,7
000c74 c01a      	RJMP __CFD15
                 __CFD17:
000c75 2777      	CLR  R23
000c76 2355      	TST  R21
000c77 f0b9      	BREQ __CFD15
                 __CFD18:
000c78 0fee      	LSL  R30
000c79 1fff      	ROL  R31
000c7a 1f66      	ROL  R22
000c7b 1f77      	ROL  R23
000c7c 955a      	DEC  R21
000c7d f7d1      	BRNE __CFD18
000c7e c010      	RJMP __CFD15
                 __CFD11:
000c7f 2777      	CLR  R23
                 __CFD12:
000c80 3058      	CPI  R21,8
000c81 f028      	BRLO __CFD13
000c82 2fef      	MOV  R30,R31
000c83 2ff6      	MOV  R31,R22
000c84 2f67      	MOV  R22,R23
000c85 5058      	SUBI R21,8
000c86 cff9      	RJMP __CFD12
                 __CFD13:
000c87 2355      	TST  R21
000c88 f031      	BREQ __CFD15
                 __CFD14:
000c89 9576      	LSR  R23
000c8a 9567      	ROR  R22
000c8b 95f7      	ROR  R31
000c8c 95e7      	ROR  R30
000c8d 955a      	DEC  R21
000c8e f7d1      	BRNE __CFD14
                 __CFD15:
000c8f 2000      	TST  R0
000c90 f40a      	BRPL __CFD16
000c91 d149      	RCALL __ANEGD1
                 __CFD16:
000c92 915f      	POP  R21
000c93 9508      	RET
                 
                 __CDF1U:
000c94 9468      	SET
000c95 c001      	RJMP __CDF1U0
                 __CDF1:
000c96 94e8      	CLT
                 __CDF1U0:
000c97 9730      	SBIW R30,0
000c98 4060      	SBCI R22,0
000c99 4070      	SBCI R23,0
000c9a f0b1      	BREQ __CDF10
000c9b 2400      	CLR  R0
000c9c f026      	BRTS __CDF11
000c9d 2377      	TST  R23
000c9e f412      	BRPL __CDF11
000c9f 9400      	COM  R0
000ca0 d13a      	RCALL __ANEGD1
                 __CDF11:
000ca1 2e17      	MOV  R1,R23
000ca2 e17e      	LDI  R23,30
000ca3 2011      	TST  R1
                 __CDF12:
000ca4 f032      	BRMI __CDF13
000ca5 957a      	DEC  R23
000ca6 0fee      	LSL  R30
000ca7 1fff      	ROL  R31
000ca8 1f66      	ROL  R22
000ca9 1c11      	ROL  R1
000caa cff9      	RJMP __CDF12
                 __CDF13:
000cab 2fef      	MOV  R30,R31
000cac 2ff6      	MOV  R31,R22
000cad 2d61      	MOV  R22,R1
000cae 935f      	PUSH R21
000caf df8a      	RCALL __REPACK
000cb0 915f      	POP  R21
                 __CDF10:
000cb1 9508      	RET
                 
                 __SWAPACC:
000cb2 934f      	PUSH R20
000cb3 01af      	MOVW R20,R30
000cb4 01fd      	MOVW R30,R26
000cb5 01da      	MOVW R26,R20
000cb6 01ab      	MOVW R20,R22
000cb7 01bc      	MOVW R22,R24
000cb8 01ca      	MOVW R24,R20
000cb9 2d40      	MOV  R20,R0
000cba 2c01      	MOV  R0,R1
000cbb 2e14      	MOV  R1,R20
000cbc 914f      	POP  R20
000cbd 9508      	RET
                 
                 __UADD12:
000cbe 0fea      	ADD  R30,R26
000cbf 1ffb      	ADC  R31,R27
000cc0 1f68      	ADC  R22,R24
000cc1 9508      	RET
                 
                 __NEGMAN1:
000cc2 95e0      	COM  R30
000cc3 95f0      	COM  R31
000cc4 9560      	COM  R22
000cc5 5fef      	SUBI R30,-1
000cc6 4fff      	SBCI R31,-1
000cc7 4f6f      	SBCI R22,-1
000cc8 9508      	RET
                 
                 __SUBF12:
000cc9 935f      	PUSH R21
000cca df81      	RCALL __UNPACK
000ccb 3890      	CPI  R25,0x80
000ccc f171      	BREQ __ADDF129
000ccd e850      	LDI  R21,0x80
000cce 2615      	EOR  R1,R21
                 
000ccf c004      	RJMP __ADDF120
                 
                 __ADDF12:
000cd0 935f      	PUSH R21
000cd1 df7a      	RCALL __UNPACK
000cd2 3890      	CPI  R25,0x80
000cd3 f139      	BREQ __ADDF129
                 
                 __ADDF120:
000cd4 3870      	CPI  R23,0x80
000cd5 f121      	BREQ __ADDF128
                 __ADDF121:
000cd6 2f57      	MOV  R21,R23
000cd7 1b59      	SUB  R21,R25
000cd8 f12b      	BRVS __ADDF1211
000cd9 f412      	BRPL __ADDF122
000cda dfd7      	RCALL __SWAPACC
000cdb cffa      	RJMP __ADDF121
                 __ADDF122:
000cdc 3158      	CPI  R21,24
000cdd f018      	BRLO __ADDF123
000cde 27aa      	CLR  R26
000cdf 27bb      	CLR  R27
000ce0 2788      	CLR  R24
                 __ADDF123:
000ce1 3058      	CPI  R21,8
000ce2 f028      	BRLO __ADDF124
000ce3 2fab      	MOV  R26,R27
000ce4 2fb8      	MOV  R27,R24
000ce5 2788      	CLR  R24
000ce6 5058      	SUBI R21,8
000ce7 cff9      	RJMP __ADDF123
                 __ADDF124:
000ce8 2355      	TST  R21
000ce9 f029      	BREQ __ADDF126
                 __ADDF125:
000cea 9586      	LSR  R24
000ceb 95b7      	ROR  R27
000cec 95a7      	ROR  R26
000ced 955a      	DEC  R21
000cee f7d9      	BRNE __ADDF125
                 __ADDF126:
000cef 2d50      	MOV  R21,R0
000cf0 2551      	EOR  R21,R1
000cf1 f072      	BRMI __ADDF127
000cf2 dfcb      	RCALL __UADD12
000cf3 f438      	BRCC __ADDF129
000cf4 9567      	ROR  R22
000cf5 95f7      	ROR  R31
000cf6 95e7      	ROR  R30
000cf7 9573      	INC  R23
000cf8 f413      	BRVC __ADDF129
000cf9 c020      	RJMP __MAXRES
                 __ADDF128:
000cfa dfb7      	RCALL __SWAPACC
                 __ADDF129:
000cfb df3e      	RCALL __REPACK
000cfc 915f      	POP  R21
000cfd 9508      	RET
                 __ADDF1211:
000cfe f7d8      	BRCC __ADDF128
000cff cffb      	RJMP __ADDF129
                 __ADDF127:
000d00 1bea      	SUB  R30,R26
000d01 0bfb      	SBC  R31,R27
000d02 0b68      	SBC  R22,R24
000d03 f051      	BREQ __ZERORES
000d04 f410      	BRCC __ADDF1210
000d05 9400      	COM  R0
000d06 dfbb      	RCALL __NEGMAN1
                 __ADDF1210:
000d07 2366      	TST  R22
000d08 f392      	BRMI __ADDF129
000d09 0fee      	LSL  R30
000d0a 1fff      	ROL  R31
000d0b 1f66      	ROL  R22
000d0c 957a      	DEC  R23
000d0d f7cb      	BRVC __ADDF1210
                 
                 __ZERORES:
000d0e 27ee      	CLR  R30
000d0f 27ff      	CLR  R31
000d10 2766      	CLR  R22
000d11 2777      	CLR  R23
000d12 915f      	POP  R21
000d13 9508      	RET
                 
                 __MINRES:
000d14 efef      	SER  R30
000d15 efff      	SER  R31
000d16 e76f      	LDI  R22,0x7F
000d17 ef7f      	SER  R23
000d18 915f      	POP  R21
000d19 9508      	RET
                 
                 __MAXRES:
000d1a efef      	SER  R30
000d1b efff      	SER  R31
000d1c e76f      	LDI  R22,0x7F
000d1d e77f      	LDI  R23,0x7F
000d1e 915f      	POP  R21
000d1f 9508      	RET
                 
                 __MULF12:
000d20 935f      	PUSH R21
000d21 df2a      	RCALL __UNPACK
000d22 3870      	CPI  R23,0x80
000d23 f351      	BREQ __ZERORES
000d24 3890      	CPI  R25,0x80
000d25 f341      	BREQ __ZERORES
000d26 2401      	EOR  R0,R1
000d27 9408      	SEC
000d28 1f79      	ADC  R23,R25
000d29 f423      	BRVC __MULF124
000d2a f31c      	BRLT __ZERORES
                 __MULF125:
000d2b 2000      	TST  R0
000d2c f33a      	BRMI __MINRES
000d2d cfec      	RJMP __MAXRES
                 __MULF124:
000d2e 920f      	PUSH R0
000d2f 931f      	PUSH R17
000d30 932f      	PUSH R18
000d31 933f      	PUSH R19
000d32 934f      	PUSH R20
000d33 2711      	CLR  R17
000d34 2722      	CLR  R18
000d35 2799      	CLR  R25
000d36 9f68      	MUL  R22,R24
000d37 01a0      	MOVW R20,R0
000d38 9f8f      	MUL  R24,R31
000d39 2d30      	MOV  R19,R0
000d3a 0d41      	ADD  R20,R1
000d3b 1f59      	ADC  R21,R25
000d3c 9f6b      	MUL  R22,R27
000d3d 0d30      	ADD  R19,R0
000d3e 1d41      	ADC  R20,R1
000d3f 1f59      	ADC  R21,R25
000d40 9f8e      	MUL  R24,R30
000d41 d027      	RCALL __MULF126
000d42 9fbf      	MUL  R27,R31
000d43 d025      	RCALL __MULF126
000d44 9f6a      	MUL  R22,R26
000d45 d023      	RCALL __MULF126
000d46 9fbe      	MUL  R27,R30
000d47 d01d      	RCALL __MULF127
000d48 9faf      	MUL  R26,R31
000d49 d01b      	RCALL __MULF127
000d4a 9fae      	MUL  R26,R30
000d4b 0d11      	ADD  R17,R1
000d4c 1f29      	ADC  R18,R25
000d4d 1f39      	ADC  R19,R25
000d4e 1f49      	ADC  R20,R25
000d4f 1f59      	ADC  R21,R25
000d50 2fe3      	MOV  R30,R19
000d51 2ff4      	MOV  R31,R20
000d52 2f65      	MOV  R22,R21
000d53 2f52      	MOV  R21,R18
000d54 914f      	POP  R20
000d55 913f      	POP  R19
000d56 912f      	POP  R18
000d57 911f      	POP  R17
000d58 900f      	POP  R0
000d59 2366      	TST  R22
000d5a f02a      	BRMI __MULF122
000d5b 0f55      	LSL  R21
000d5c 1fee      	ROL  R30
000d5d 1fff      	ROL  R31
000d5e 1f66      	ROL  R22
000d5f c002      	RJMP __MULF123
                 __MULF122:
000d60 9573      	INC  R23
000d61 f24b      	BRVS __MULF125
                 __MULF123:
000d62 decd      	RCALL __ROUND_REPACK
000d63 915f      	POP  R21
000d64 9508      	RET
                 
                 __MULF127:
000d65 0d10      	ADD  R17,R0
000d66 1d21      	ADC  R18,R1
000d67 1f39      	ADC  R19,R25
000d68 c002      	RJMP __MULF128
                 __MULF126:
000d69 0d20      	ADD  R18,R0
000d6a 1d31      	ADC  R19,R1
                 __MULF128:
000d6b 1f49      	ADC  R20,R25
000d6c 1f59      	ADC  R21,R25
000d6d 9508      	RET
                 
                 __DIVF21:
000d6e 935f      	PUSH R21
000d6f dedc      	RCALL __UNPACK
000d70 3870      	CPI  R23,0x80
000d71 f421      	BRNE __DIVF210
000d72 2011      	TST  R1
                 __DIVF211:
000d73 f40a      	BRPL __DIVF219
000d74 cf9f      	RJMP __MINRES
                 __DIVF219:
000d75 cfa4      	RJMP __MAXRES
                 __DIVF210:
000d76 3890      	CPI  R25,0x80
000d77 f409      	BRNE __DIVF218
                 __DIVF217:
000d78 cf95      	RJMP __ZERORES
                 __DIVF218:
000d79 2401      	EOR  R0,R1
000d7a 9408      	SEC
000d7b 0b97      	SBC  R25,R23
000d7c f41b      	BRVC __DIVF216
000d7d f3d4      	BRLT __DIVF217
000d7e 2000      	TST  R0
000d7f cff3      	RJMP __DIVF211
                 __DIVF216:
000d80 2f79      	MOV  R23,R25
000d81 931f      	PUSH R17
000d82 932f      	PUSH R18
000d83 933f      	PUSH R19
000d84 934f      	PUSH R20
000d85 2411      	CLR  R1
000d86 2711      	CLR  R17
000d87 2722      	CLR  R18
000d88 2733      	CLR  R19
000d89 2744      	CLR  R20
000d8a 2755      	CLR  R21
000d8b e290      	LDI  R25,32
                 __DIVF212:
000d8c 17ae      	CP   R26,R30
000d8d 07bf      	CPC  R27,R31
000d8e 0786      	CPC  R24,R22
000d8f 0741      	CPC  R20,R17
000d90 f030      	BRLO __DIVF213
000d91 1bae      	SUB  R26,R30
000d92 0bbf      	SBC  R27,R31
000d93 0b86      	SBC  R24,R22
000d94 0b41      	SBC  R20,R17
000d95 9408      	SEC
000d96 c001      	RJMP __DIVF214
                 __DIVF213:
000d97 9488      	CLC
                 __DIVF214:
000d98 1f55      	ROL  R21
000d99 1f22      	ROL  R18
000d9a 1f33      	ROL  R19
000d9b 1c11      	ROL  R1
000d9c 1faa      	ROL  R26
000d9d 1fbb      	ROL  R27
000d9e 1f88      	ROL  R24
000d9f 1f44      	ROL  R20
000da0 959a      	DEC  R25
000da1 f751      	BRNE __DIVF212
000da2 01f9      	MOVW R30,R18
000da3 2d61      	MOV  R22,R1
000da4 914f      	POP  R20
000da5 913f      	POP  R19
000da6 912f      	POP  R18
000da7 911f      	POP  R17
000da8 2366      	TST  R22
000da9 f032      	BRMI __DIVF215
000daa 0f55      	LSL  R21
000dab 1fee      	ROL  R30
000dac 1fff      	ROL  R31
000dad 1f66      	ROL  R22
000dae 957a      	DEC  R23
000daf f243      	BRVS __DIVF217
                 __DIVF215:
000db0 de7f      	RCALL __ROUND_REPACK
000db1 915f      	POP  R21
000db2 9508      	RET
                 
                 __CMPF12:
000db3 2399      	TST  R25
000db4 f09a      	BRMI __CMPF120
000db5 2377      	TST  R23
000db6 f042      	BRMI __CMPF121
000db7 1797      	CP   R25,R23
000db8 f048      	BRLO __CMPF122
000db9 f429      	BRNE __CMPF121
000dba 17ae      	CP   R26,R30
000dbb 07bf      	CPC  R27,R31
000dbc 0786      	CPC  R24,R22
000dbd f020      	BRLO __CMPF122
000dbe f031      	BREQ __CMPF123
                 __CMPF121:
000dbf 9498      	CLZ
000dc0 9488      	CLC
000dc1 9508      	RET
                 __CMPF122:
000dc2 9498      	CLZ
000dc3 9408      	SEC
000dc4 9508      	RET
                 __CMPF123:
000dc5 9418      	SEZ
000dc6 9488      	CLC
000dc7 9508      	RET
                 __CMPF120:
000dc8 2377      	TST  R23
000dc9 f7c2      	BRPL __CMPF122
000dca 1797      	CP   R25,R23
000dcb f398      	BRLO __CMPF121
000dcc f7a9      	BRNE __CMPF122
000dcd 17ea      	CP   R30,R26
000dce 07fb      	CPC  R31,R27
000dcf 0768      	CPC  R22,R24
000dd0 f388      	BRLO __CMPF122
000dd1 f399      	BREQ __CMPF123
000dd2 cfec      	RJMP __CMPF121
                 
                 __ADDW2R15:
000dd3 2400      	CLR  R0
000dd4 0daf      	ADD  R26,R15
000dd5 1db0      	ADC  R27,R0
000dd6 9508      	RET
                 
                 __ANEGW1:
000dd7 95f1      	NEG  R31
000dd8 95e1      	NEG  R30
000dd9 40f0      	SBCI R31,0
000dda 9508      	RET
                 
                 __ANEGD1:
000ddb 95f0      	COM  R31
000ddc 9560      	COM  R22
000ddd 9570      	COM  R23
000dde 95e1      	NEG  R30
000ddf 4fff      	SBCI R31,-1
000de0 4f6f      	SBCI R22,-1
000de1 4f7f      	SBCI R23,-1
000de2 9508      	RET
                 
                 __CBD1:
000de3 2ffe      	MOV  R31,R30
000de4 0fff      	ADD  R31,R31
000de5 0bff      	SBC  R31,R31
000de6 2f6f      	MOV  R22,R31
000de7 2f7f      	MOV  R23,R31
000de8 9508      	RET
                 
                 __CWD1:
000de9 2f6f      	MOV  R22,R31
000dea 0f66      	ADD  R22,R22
000deb 0b66      	SBC  R22,R22
000dec 2f76      	MOV  R23,R22
000ded 9508      	RET
                 
                 __EQB12:
000dee 17ea      	CP   R30,R26
000def e0e1      	LDI  R30,1
000df0 f009      	BREQ __EQB12T
000df1 27ee      	CLR  R30
                 __EQB12T:
000df2 9508      	RET
                 
                 __DIVB21U:
000df3 2400      	CLR  R0
000df4 e098      	LDI  R25,8
                 __DIVB21U1:
000df5 0faa      	LSL  R26
000df6 1c00      	ROL  R0
000df7 1a0e      	SUB  R0,R30
000df8 f410      	BRCC __DIVB21U2
000df9 0e0e      	ADD  R0,R30
000dfa c001      	RJMP __DIVB21U3
                 __DIVB21U2:
000dfb 60a1      	SBR  R26,1
                 __DIVB21U3:
000dfc 959a      	DEC  R25
000dfd f7b9      	BRNE __DIVB21U1
000dfe 2fea      	MOV  R30,R26
000dff 2da0      	MOV  R26,R0
000e00 9508      	RET
                 
                 __DIVB21:
000e01 d05a      	RCALL __CHKSIGNB
000e02 dff0      	RCALL __DIVB21U
000e03 f40e      	BRTC __DIVB211
000e04 95e1      	NEG  R30
                 __DIVB211:
000e05 9508      	RET
                 
                 __DIVW21U:
000e06 2400      	CLR  R0
000e07 2411      	CLR  R1
000e08 e190      	LDI  R25,16
                 __DIVW21U1:
000e09 0faa      	LSL  R26
000e0a 1fbb      	ROL  R27
000e0b 1c00      	ROL  R0
000e0c 1c11      	ROL  R1
000e0d 1a0e      	SUB  R0,R30
000e0e 0a1f      	SBC  R1,R31
000e0f f418      	BRCC __DIVW21U2
000e10 0e0e      	ADD  R0,R30
000e11 1e1f      	ADC  R1,R31
000e12 c001      	RJMP __DIVW21U3
                 __DIVW21U2:
000e13 60a1      	SBR  R26,1
                 __DIVW21U3:
000e14 959a      	DEC  R25
000e15 f799      	BRNE __DIVW21U1
000e16 01fd      	MOVW R30,R26
000e17 01d0      	MOVW R26,R0
000e18 9508      	RET
                 
                 __DIVD21U:
000e19 933f      	PUSH R19
000e1a 934f      	PUSH R20
000e1b 935f      	PUSH R21
000e1c 2400      	CLR  R0
000e1d 2411      	CLR  R1
000e1e 2744      	CLR  R20
000e1f 2755      	CLR  R21
000e20 e230      	LDI  R19,32
                 __DIVD21U1:
000e21 0faa      	LSL  R26
000e22 1fbb      	ROL  R27
000e23 1f88      	ROL  R24
000e24 1f99      	ROL  R25
000e25 1c00      	ROL  R0
000e26 1c11      	ROL  R1
000e27 1f44      	ROL  R20
000e28 1f55      	ROL  R21
000e29 1a0e      	SUB  R0,R30
000e2a 0a1f      	SBC  R1,R31
000e2b 0b46      	SBC  R20,R22
000e2c 0b57      	SBC  R21,R23
000e2d f428      	BRCC __DIVD21U2
000e2e 0e0e      	ADD  R0,R30
000e2f 1e1f      	ADC  R1,R31
000e30 1f46      	ADC  R20,R22
000e31 1f57      	ADC  R21,R23
000e32 c001      	RJMP __DIVD21U3
                 __DIVD21U2:
000e33 60a1      	SBR  R26,1
                 __DIVD21U3:
000e34 953a      	DEC  R19
000e35 f759      	BRNE __DIVD21U1
000e36 01fd      	MOVW R30,R26
000e37 01bc      	MOVW R22,R24
000e38 01d0      	MOVW R26,R0
000e39 01ca      	MOVW R24,R20
000e3a 915f      	POP  R21
000e3b 914f      	POP  R20
000e3c 913f      	POP  R19
000e3d 9508      	RET
                 
                 __MODB21:
000e3e 94e8      	CLT
000e3f ffa7      	SBRS R26,7
000e40 c002      	RJMP __MODB211
000e41 95a1      	NEG  R26
000e42 9468      	SET
                 __MODB211:
000e43 fde7      	SBRC R30,7
000e44 95e1      	NEG  R30
000e45 dfad      	RCALL __DIVB21U
000e46 2fea      	MOV  R30,R26
000e47 f40e      	BRTC __MODB212
000e48 95e1      	NEG  R30
                 __MODB212:
000e49 9508      	RET
                 
                 __MODW21:
000e4a 94e8      	CLT
000e4b ffb7      	SBRS R27,7
000e4c c004      	RJMP __MODW211
000e4d 95a0      	COM  R26
000e4e 95b0      	COM  R27
000e4f 9611      	ADIW R26,1
000e50 9468      	SET
                 __MODW211:
000e51 fdf7      	SBRC R31,7
000e52 df84      	RCALL __ANEGW1
000e53 dfb2      	RCALL __DIVW21U
000e54 01fd      	MOVW R30,R26
000e55 f40e      	BRTC __MODW212
000e56 df80      	RCALL __ANEGW1
                 __MODW212:
000e57 9508      	RET
                 
                 __MODD21U:
000e58 dfc0      	RCALL __DIVD21U
000e59 01fd      	MOVW R30,R26
000e5a 01bc      	MOVW R22,R24
000e5b 9508      	RET
                 
                 __CHKSIGNB:
000e5c 94e8      	CLT
000e5d ffe7      	SBRS R30,7
000e5e c002      	RJMP __CHKSB1
000e5f 95e1      	NEG  R30
000e60 9468      	SET
                 __CHKSB1:
000e61 ffa7      	SBRS R26,7
000e62 c004      	RJMP __CHKSB2
000e63 95a1      	NEG  R26
000e64 f800      	BLD  R0,0
000e65 9403      	INC  R0
000e66 fa00      	BST  R0,0
                 __CHKSB2:
000e67 9508      	RET
                 
                 __GETW1P:
000e68 91ed      	LD   R30,X+
000e69 91fc      	LD   R31,X
000e6a 9711      	SBIW R26,1
000e6b 9508      	RET
                 
                 __GETD1P:
000e6c 91ed      	LD   R30,X+
000e6d 91fd      	LD   R31,X+
000e6e 916d      	LD   R22,X+
000e6f 917c      	LD   R23,X
000e70 9713      	SBIW R26,3
000e71 9508      	RET
                 
                 __PUTDP1:
000e72 93ed      	ST   X+,R30
000e73 93fd      	ST   X+,R31
000e74 936d      	ST   X+,R22
000e75 937c      	ST   X,R23
000e76 9508      	RET
                 
                 __GETD1S0:
000e77 81e8      	LD   R30,Y
000e78 81f9      	LDD  R31,Y+1
000e79 816a      	LDD  R22,Y+2
000e7a 817b      	LDD  R23,Y+3
000e7b 9508      	RET
                 
                 __GETD2S0:
000e7c 81a8      	LD   R26,Y
000e7d 81b9      	LDD  R27,Y+1
000e7e 818a      	LDD  R24,Y+2
000e7f 819b      	LDD  R25,Y+3
000e80 9508      	RET
                 
                 __PUTD1S0:
000e81 83e8      	ST   Y,R30
000e82 83f9      	STD  Y+1,R31
000e83 836a      	STD  Y+2,R22
000e84 837b      	STD  Y+3,R23
000e85 9508      	RET
                 
                 __PUTPARD1:
000e86 937a      	ST   -Y,R23
000e87 936a      	ST   -Y,R22
000e88 93fa      	ST   -Y,R31
000e89 93ea      	ST   -Y,R30
000e8a 9508      	RET
                 
                 __PUTPARD2:
000e8b 939a      	ST   -Y,R25
000e8c 938a      	ST   -Y,R24
000e8d 93ba      	ST   -Y,R27
000e8e 93aa      	ST   -Y,R26
000e8f 9508      	RET
                 
                 __PUTPARL:
000e90 27bb      	CLR  R27
                 __PUTPAR:
000e91 0fea      	ADD  R30,R26
000e92 1ffb      	ADC  R31,R27
                 __PUTPAR0:
000e93 9002      	LD   R0,-Z
000e94 920a      	ST   -Y,R0
000e95 9711      	SBIW R26,1
000e96 f7e1      	BRNE __PUTPAR0
000e97 9508      	RET
                 
                 __SWAPD12:
000e98 2e18      	MOV  R1,R24
000e99 2f86      	MOV  R24,R22
000e9a 2d61      	MOV  R22,R1
000e9b 2e19      	MOV  R1,R25
000e9c 2f97      	MOV  R25,R23
000e9d 2d71      	MOV  R23,R1
                 
                 __SWAPW12:
000e9e 2e1b      	MOV  R1,R27
000e9f 2fbf      	MOV  R27,R31
000ea0 2df1      	MOV  R31,R1
                 
                 __SWAPB12:
000ea1 2e1a      	MOV  R1,R26
000ea2 2fae      	MOV  R26,R30
000ea3 2de1      	MOV  R30,R1
000ea4 9508      	RET
                 
                 __CPD10:
000ea5 9730      	SBIW R30,0
000ea6 4060      	SBCI R22,0
000ea7 4070      	SBCI R23,0
000ea8 9508      	RET
                 
                 __SAVELOCR6:
000ea9 935a      	ST   -Y,R21
                 __SAVELOCR5:
000eaa 934a      	ST   -Y,R20
                 __SAVELOCR4:
000eab 933a      	ST   -Y,R19
                 __SAVELOCR3:
000eac 932a      	ST   -Y,R18
                 __SAVELOCR2:
000ead 931a      	ST   -Y,R17
000eae 930a      	ST   -Y,R16
000eaf 9508      	RET
                 
                 __LOADLOCR6:
000eb0 815d      	LDD  R21,Y+5
                 __LOADLOCR5:
000eb1 814c      	LDD  R20,Y+4
                 __LOADLOCR4:
000eb2 813b      	LDD  R19,Y+3
                 __LOADLOCR3:
000eb3 812a      	LDD  R18,Y+2
                 __LOADLOCR2:
000eb4 8119      	LDD  R17,Y+1
000eb5 8108      	LD   R16,Y
000eb6 9508      	RET
                 
                 ;END OF CODE MARKER
                 __END_OF_CODE:


RESOURCE USE INFORMATION
------------------------

Notice:
The register and instruction counts are symbol table hit counts,
and hence implicitly used resources are not counted, eg, the
'lpm' instruction without operands implicitly uses r0 and z,
none of which are counted.

x,y,z are separate entities in the symbol table and are
counted separately from r26..r31 here.

.dseg memory usage only counts static data declared with .byte

ATmega328 register use summary:
r0 :  71 r1 :  42 r2 :   0 r3 :   2 r4 :   2 r5 :   3 r6 :   3 r7 :   0 
r8 :   4 r9 :   0 r10:   0 r11:   0 r12:   0 r13:   0 r14:   0 r15:   8 
r16:  60 r17:  86 r18:  65 r19:  41 r20:  54 r21:  90 r22: 136 r23: 121 
r24:  94 r25:  74 r26: 267 r27: 128 r28:  39 r29:   1 r30: 752 r31: 222 
x  :  50 y  : 470 z  :  24 
Registers used: 27 out of 35 (77.1%)

ATmega328 instruction use summary:
.lds  :   0 .lds.l:   0 .sts  :   0 .sts.l:   0 adc   :  26 add   :  19 
adiw  :  41 and   :   5 andi  :  27 asr   :   0 bclr  :   0 bld   :   3 
brbc  :   0 brbs  :   0 brcc  :   9 brcs  :   1 break :   0 breq  :  67 
brge  :   1 brhc  :   0 brhs  :   0 brid  :   0 brie  :   0 brlo  :  29 
brlt  :   2 brmi  :  11 brne  :  96 brpl  :   9 brsh  :  11 brtc  :   5 
brts  :   1 brvc  :   4 brvs  :   4 bset  :   0 bst   :   3 call  : 269 
cbi   :   9 cbr   :   1 clc   :   3 clh   :   0 cli   :   1 cln   :   0 
clr   :  56 cls   :   0 clt   :   6 clv   :   0 clz   :   2 com   :  10 
cp    :  21 cpc   :  22 cpi   : 120 cpse  :   0 dec   :  19 des   :   0 
eor   :   7 fmul  :   0 fmuls :   0 fmulsu:   0 icall :   7 ijmp  :   0 
in    :   5 inc   :   4 jmp   :  30 ld    :  72 ldd   : 214 ldi   : 355 
lds   : 114 lpm   :  12 lsl   :  25 lsr   :   3 mov   :  96 movw  :  58 
mul   :  11 muls  :   0 mulsu :   0 neg   :  11 nop   :   0 or    :   6 
ori   :  32 out   :  24 pop   :  22 push  :  22 rcall :  96 ret   : 125 
reti  :   2 rjmp  : 203 rol   :  35 ror   :  15 sbc   :  12 sbci  :  22 
sbi   :  13 sbic  :   3 sbis  :   7 sbiw  :  41 sbr   :   5 sbrc  :   7 
sbrs  :  21 sec   :   5 seh   :   0 sei   :   2 sen   :   0 ser   :   8 
ses   :   0 set   :   5 sev   :   0 sez   :   1 sleep :   0 spm   :   0 
st    : 162 std   :  85 sts   : 111 sub   :   7 subi  :  52 swap  :   1 
tst   :  26 wdr   :   1 
Instructions used: 83 out of 116 (71.6%)

ATmega328 memory use summary [bytes]:
Segment   Begin    End      Code   Data   Used    Size   Use%
---------------------------------------------------------------
[.cseg] 0x000000 0x001d6e   7278    256   7534   32768  23.0%
[.dseg] 0x000100 0x000379      0    121    121    2048   5.9%
[.eseg] 0x000000 0x000000      0      0      0    1024   0.0%

Assembly complete, 0 errors, 9 warnings
